
lab9.elf:     file format elf32-littlenios2
lab9.elf
architecture: nios2:r1, flags 0x00000112:
EXEC_P, HAS_SYMS, D_PAGED
start address 0x08000230

Program Header:
    LOAD off    0x00001000 vaddr 0x08000000 paddr 0x08000000 align 2**12
         filesz 0x00000020 memsz 0x00000020 flags r-x
    LOAD off    0x00001020 vaddr 0x08000020 paddr 0x08000020 align 2**12
         filesz 0x0001acc8 memsz 0x0001acc8 flags r-x
    LOAD off    0x0001bce8 vaddr 0x0801ace8 paddr 0x0801ce20 align 2**12
         filesz 0x00002138 memsz 0x00002138 flags rw-
    LOAD off    0x0001df58 vaddr 0x0801ef58 paddr 0x0801ef58 align 2**12
         filesz 0x00000000 memsz 0x00000164 flags rw-

Sections:
Idx Name          Size      VMA       LMA       File off  Algn
  0 .entry        00000020  08000000  08000000  00001000  2**5
                  CONTENTS, ALLOC, LOAD, READONLY, CODE
  1 .exceptions   00000210  08000020  08000020  00001020  2**2
                  CONTENTS, ALLOC, LOAD, READONLY, CODE
  2 .text         0001a084  08000230  08000230  00001230  2**2
                  CONTENTS, ALLOC, LOAD, READONLY, CODE
  3 .rodata       00000a34  0801a2b4  0801a2b4  0001b2b4  2**2
                  CONTENTS, ALLOC, LOAD, READONLY, DATA
  4 .rwdata       00002138  0801ace8  0801ce20  0001bce8  2**2
                  CONTENTS, ALLOC, LOAD, DATA, SMALL_DATA
  5 .bss          00000164  0801ef58  0801ef58  0001df58  2**2
                  ALLOC, SMALL_DATA
  6 .sdram        00000000  0801f0bc  0801f0bc  0001de20  2**0
                  CONTENTS
  7 .onchip_memory2_0 00000000  10001080  10001080  0001de20  2**0
                  CONTENTS
  8 .comment      00000023  00000000  00000000  0001de20  2**0
                  CONTENTS, READONLY
  9 .debug_aranges 00001370  00000000  00000000  0001de48  2**3
                  CONTENTS, READONLY, DEBUGGING
 10 .debug_info   00033d86  00000000  00000000  0001f1b8  2**0
                  CONTENTS, READONLY, DEBUGGING
 11 .debug_abbrev 0000cb8c  00000000  00000000  00052f3e  2**0
                  CONTENTS, READONLY, DEBUGGING
 12 .debug_line   00011003  00000000  00000000  0005faca  2**0
                  CONTENTS, READONLY, DEBUGGING
 13 .debug_frame  00002c5c  00000000  00000000  00070ad0  2**2
                  CONTENTS, READONLY, DEBUGGING
 14 .debug_str    00004750  00000000  00000000  0007372c  2**0
                  CONTENTS, READONLY, DEBUGGING
 15 .debug_loc    000250a0  00000000  00000000  00077e7c  2**0
                  CONTENTS, READONLY, DEBUGGING
 16 .debug_alt_sim_info 00000010  00000000  00000000  0009cf1c  2**2
                  CONTENTS, READONLY, DEBUGGING
 17 .debug_ranges 00002160  00000000  00000000  0009cf30  2**3
                  CONTENTS, READONLY, DEBUGGING
 18 .thread_model 00000003  00000000  00000000  000a2d4a  2**0
                  CONTENTS, READONLY
 19 .cpu          0000000c  00000000  00000000  000a2d4d  2**0
                  CONTENTS, READONLY
 20 .qsys         00000001  00000000  00000000  000a2d59  2**0
                  CONTENTS, READONLY
 21 .simulation_enabled 00000001  00000000  00000000  000a2d5a  2**0
                  CONTENTS, READONLY
 22 .sysid_hash   00000004  00000000  00000000  000a2d5b  2**0
                  CONTENTS, READONLY
 23 .sysid_base   00000004  00000000  00000000  000a2d5f  2**0
                  CONTENTS, READONLY
 24 .sysid_time   00000004  00000000  00000000  000a2d63  2**0
                  CONTENTS, READONLY
 25 .stderr_dev   0000000b  00000000  00000000  000a2d67  2**0
                  CONTENTS, READONLY
 26 .stdin_dev    0000000b  00000000  00000000  000a2d72  2**0
                  CONTENTS, READONLY
 27 .stdout_dev   0000000b  00000000  00000000  000a2d7d  2**0
                  CONTENTS, READONLY
 28 .sopc_system_name 00000008  00000000  00000000  000a2d88  2**0
                  CONTENTS, READONLY
 29 .quartus_project_dir 00000022  00000000  00000000  000a2d90  2**0
                  CONTENTS, READONLY
 30 .jdi          000052b6  00000000  00000000  000a2db2  2**0
                  CONTENTS, READONLY
 31 .sopcinfo     00053d16  00000000  00000000  000a8068  2**0
                  CONTENTS, READONLY
SYMBOL TABLE:
08000000 l    d  .entry	00000000 .entry
08000020 l    d  .exceptions	00000000 .exceptions
08000230 l    d  .text	00000000 .text
0801a2b4 l    d  .rodata	00000000 .rodata
0801ace8 l    d  .rwdata	00000000 .rwdata
0801ef58 l    d  .bss	00000000 .bss
0801f0bc l    d  .sdram	00000000 .sdram
10001080 l    d  .onchip_memory2_0	00000000 .onchip_memory2_0
00000000 l    d  .comment	00000000 .comment
00000000 l    d  .debug_aranges	00000000 .debug_aranges
00000000 l    d  .debug_info	00000000 .debug_info
00000000 l    d  .debug_abbrev	00000000 .debug_abbrev
00000000 l    d  .debug_line	00000000 .debug_line
00000000 l    d  .debug_frame	00000000 .debug_frame
00000000 l    d  .debug_str	00000000 .debug_str
00000000 l    d  .debug_loc	00000000 .debug_loc
00000000 l    d  .debug_alt_sim_info	00000000 .debug_alt_sim_info
00000000 l    d  .debug_ranges	00000000 .debug_ranges
00000000 l    df *ABS*	00000000 ../lab9_bsp//obj/HAL/src/crt0.o
08000268 l       .text	00000000 alt_after_alt_main
00000000 l    df *ABS*	00000000 alt_irq_handler.c
00000000 l    df *ABS*	00000000 alt_instruction_exception_entry.c
00000000 l    df *ABS*	00000000 main.c
00000000 l    df *ABS*	00000000 lib2-divmod.c
00000000 l    df *ABS*	00000000 lib2-mul.c
00000000 l    df *ABS*	00000000 divdf3.c
00000000 l    df *ABS*	00000000 floatsidf.c
00000000 l    df *ABS*	00000000 floatunsidf.c
00000000 l    df *ABS*	00000000 libgcc2.c
00000000 l    df *ABS*	00000000 libgcc2.c
00000000 l    df *ABS*	00000000 clock.c
00000000 l    df *ABS*	00000000 impure.c
0801b328 l     O .rwdata	00000424 impure_data
00000000 l    df *ABS*	00000000 printf.c
00000000 l    df *ABS*	00000000 putchar.c
00000000 l    df *ABS*	00000000 puts.c
00000000 l    df *ABS*	00000000 scanf.c
00000000 l    df *ABS*	00000000 strlen.c
00000000 l    df *ABS*	00000000 timesr.c
00000000 l    df *ABS*	00000000 vfprintf.c
0801a6e6 l     O .rodata	00000010 zeroes.4404
08004a94 l     F .text	000000bc __sbprintf
0801a6f6 l     O .rodata	00000010 blanks.4403
00000000 l    df *ABS*	00000000 vfscanf.c
0801a70e l     O .rodata	00000022 basefix.4359
00000000 l    df *ABS*	00000000 wsetup.c
00000000 l    df *ABS*	00000000 ctype_.c
0801a831 l     O .rodata	00000180 _ctype_b
00000000 l    df *ABS*	00000000 dtoa.c
08006700 l     F .text	00000228 quorem
00000000 l    df *ABS*	00000000 fflush.c
00000000 l    df *ABS*	00000000 findfp.c
08008258 l     F .text	00000008 __fp_unlock
0800826c l     F .text	0000019c __sinit.part.1
08008408 l     F .text	00000008 __fp_lock
00000000 l    df *ABS*	00000000 fread.c
00000000 l    df *ABS*	00000000 mallocr.c
00000000 l    df *ABS*	00000000 fvwrite.c
00000000 l    df *ABS*	00000000 fwalk.c
00000000 l    df *ABS*	00000000 iswspace.c
00000000 l    df *ABS*	00000000 locale.c
0801b76c l     O .rwdata	00000020 lc_ctype_charset
0801b74c l     O .rwdata	00000020 lc_message_charset
0801b78c l     O .rwdata	00000038 lconv
00000000 l    df *ABS*	00000000 makebuf.c
00000000 l    df *ABS*	00000000 mallocr.c
00000000 l    df *ABS*	00000000 mbrtowc.c
00000000 l    df *ABS*	00000000 mbtowc_r.c
00000000 l    df *ABS*	00000000 memchr.c
00000000 l    df *ABS*	00000000 memcpy.c
00000000 l    df *ABS*	00000000 memmove.c
00000000 l    df *ABS*	00000000 memset.c
00000000 l    df *ABS*	00000000 mprec.c
0801a9d0 l     O .rodata	0000000c p05.2768
00000000 l    df *ABS*	00000000 putc.c
00000000 l    df *ABS*	00000000 mallocr.c
00000000 l    df *ABS*	00000000 refill.c
0800bc28 l     F .text	0000001c lflush
00000000 l    df *ABS*	00000000 s_fpclassify.c
00000000 l    df *ABS*	00000000 sbrkr.c
00000000 l    df *ABS*	00000000 sccl.c
00000000 l    df *ABS*	00000000 sf_nan.c
00000000 l    df *ABS*	00000000 sprintf.c
00000000 l    df *ABS*	00000000 stdio.c
00000000 l    df *ABS*	00000000 strcmp.c
00000000 l    df *ABS*	00000000 strtod.c
0800c294 l     F .text	00000064 sulp
0801ab04 l     O .rodata	00000014 fpinan.2773
0801ab18 l     O .rodata	00000014 fpi.2737
0801ab2c l     O .rodata	00000028 tinytens
00000000 l    df *ABS*	00000000 strtol.c
00000000 l    df *ABS*	00000000 strtoll_r.c
00000000 l    df *ABS*	00000000 strtoul.c
00000000 l    df *ABS*	00000000 strtoull_r.c
00000000 l    df *ABS*	00000000 vfprintf.c
0801ab54 l     O .rodata	00000010 zeroes.4389
0801ab64 l     O .rodata	00000010 blanks.4388
00000000 l    df *ABS*	00000000 ungetc.c
00000000 l    df *ABS*	00000000 vfprintf.c
08010a5c l     F .text	000000fc __sprint_r.part.0
0801ab74 l     O .rodata	00000010 zeroes.4349
08012098 l     F .text	000000bc __sbprintf
0801ab84 l     O .rodata	00000010 blanks.4348
00000000 l    df *ABS*	00000000 wbuf.c
00000000 l    df *ABS*	00000000 writer.c
00000000 l    df *ABS*	00000000 closer.c
00000000 l    df *ABS*	00000000 mallocr.c
00000000 l    df *ABS*	00000000 fclose.c
00000000 l    df *ABS*	00000000 fputwc.c
00000000 l    df *ABS*	00000000 fstatr.c
00000000 l    df *ABS*	00000000 gdtoa-gethex.c
080127a4 l     F .text	00000100 rshift
00000000 l    df *ABS*	00000000 gdtoa-hexnan.c
00000000 l    df *ABS*	00000000 int_errno.c
00000000 l    df *ABS*	00000000 isattyr.c
00000000 l    df *ABS*	00000000 lseekr.c
00000000 l    df *ABS*	00000000 readr.c
00000000 l    df *ABS*	00000000 strncmp.c
00000000 l    df *ABS*	00000000 vfprintf.c
0801ac94 l     O .rodata	00000010 zeroes.4333
0801aca4 l     O .rodata	00000010 blanks.4332
00000000 l    df *ABS*	00000000 wcrtomb.c
00000000 l    df *ABS*	00000000 wctomb_r.c
00000000 l    df *ABS*	00000000 libgcc2.c
00000000 l    df *ABS*	00000000 libgcc2.c
00000000 l    df *ABS*	00000000 libgcc2.c
00000000 l    df *ABS*	00000000 libgcc2.c
00000000 l    df *ABS*	00000000 eqsf2.c
00000000 l    df *ABS*	00000000 gesf2.c
00000000 l    df *ABS*	00000000 lesf2.c
00000000 l    df *ABS*	00000000 adddf3.c
00000000 l    df *ABS*	00000000 eqdf2.c
00000000 l    df *ABS*	00000000 gedf2.c
00000000 l    df *ABS*	00000000 ledf2.c
00000000 l    df *ABS*	00000000 muldf3.c
00000000 l    df *ABS*	00000000 subdf3.c
00000000 l    df *ABS*	00000000 fixdfsi.c
00000000 l    df *ABS*	00000000 truncdfsf2.c
00000000 l    df *ABS*	00000000 alt_close.c
08017a5c l     F .text	0000003c alt_get_errno
00000000 l    df *ABS*	00000000 alt_dev.c
08017b70 l     F .text	0000002c alt_dev_null_write
00000000 l    df *ABS*	00000000 alt_errno.c
00000000 l    df *ABS*	00000000 alt_fstat.c
08017b9c l     F .text	0000003c alt_get_errno
00000000 l    df *ABS*	00000000 alt_isatty.c
08017c90 l     F .text	0000003c alt_get_errno
00000000 l    df *ABS*	00000000 alt_load.c
08017d78 l     F .text	00000068 alt_load_section
00000000 l    df *ABS*	00000000 alt_lseek.c
08017e64 l     F .text	0000003c alt_get_errno
00000000 l    df *ABS*	00000000 alt_main.c
00000000 l    df *ABS*	00000000 alt_malloc_lock.c
00000000 l    df *ABS*	00000000 alt_read.c
08018040 l     F .text	0000003c alt_get_errno
00000000 l    df *ABS*	00000000 alt_release_fd.c
00000000 l    df *ABS*	00000000 alt_sbrk.c
0801ce10 l     O .rwdata	00000004 heap_end
00000000 l    df *ABS*	00000000 alt_times.c
080182b4 l     F .text	0000003c alt_get_errno
00000000 l    df *ABS*	00000000 alt_write.c
08018368 l     F .text	0000003c alt_get_errno
00000000 l    df *ABS*	00000000 alt_sys_init.c
080184a4 l     F .text	00000034 alt_dev_reg
0801bd74 l     O .rwdata	00001060 jtag_uart_0
00000000 l    df *ABS*	00000000 altera_avalon_jtag_uart_fd.c
00000000 l    df *ABS*	00000000 altera_avalon_jtag_uart_init.c
08018798 l     F .text	0000020c altera_avalon_jtag_uart_irq
080189a4 l     F .text	000000a0 altera_avalon_jtag_uart_timeout
00000000 l    df *ABS*	00000000 altera_avalon_jtag_uart_ioctl.c
00000000 l    df *ABS*	00000000 altera_avalon_jtag_uart_read.c
00000000 l    df *ABS*	00000000 altera_avalon_jtag_uart_write.c
00000000 l    df *ABS*	00000000 altera_avalon_timer_sc.c
08018fdc l     F .text	00000078 alt_avalon_timer_sc_irq
00000000 l    df *ABS*	00000000 alt_alarm_start.c
00000000 l    df *ABS*	00000000 alt_dcache_flush_all.c
00000000 l    df *ABS*	00000000 alt_dev_llist_insert.c
0801921c l     F .text	0000003c alt_get_errno
00000000 l    df *ABS*	00000000 alt_do_ctors.c
00000000 l    df *ABS*	00000000 alt_do_dtors.c
00000000 l    df *ABS*	00000000 alt_icache_flush_all.c
00000000 l    df *ABS*	00000000 alt_iic.c
00000000 l    df *ABS*	00000000 alt_iic_isr_register.c
00000000 l    df *ABS*	00000000 alt_io_redirect.c
0801967c l     F .text	000000e4 alt_open_fd
00000000 l    df *ABS*	00000000 alt_irq_vars.c
00000000 l    df *ABS*	00000000 alt_open.c
080197dc l     F .text	0000003c alt_get_errno
08019818 l     F .text	000000ec alt_file_locked
00000000 l    df *ABS*	00000000 alt_tick.c
00000000 l    df *ABS*	00000000 altera_nios2_gen2_irq.c
00000000 l    df *ABS*	00000000 alt_find_dev.c
00000000 l    df *ABS*	00000000 alt_find_file.c
00000000 l    df *ABS*	00000000 alt_get_fd.c
00000000 l    df *ABS*	00000000 atexit.c
00000000 l    df *ABS*	00000000 exit.c
00000000 l    df *ABS*	00000000 memcmp.c
00000000 l    df *ABS*	00000000 __atexit.c
00000000 l    df *ABS*	00000000 __call_atexit.c
00000000 l    df *ABS*	00000000 alt_exit.c
0801ef90 g     O .bss	00000004 alt_instruction_exception_handler
080025a4 g     F .text	00000018 putchar
0800b3e4 g     F .text	00000074 _mprec_log10
0800026c g     F .text	000000bc charToHex
0800b4d0 g     F .text	0000008c __any_on
08013350 g     F .text	00000054 _isatty_r
0801a9dc g     O .rodata	00000028 __mprec_tinytens
08017f7c g     F .text	0000007c alt_main
080025bc g     F .text	000000c0 _puts_r
0801efbc g     O .bss	00000100 alt_irq
080133a4 g     F .text	00000060 _lseek_r
08001224 g     F .text	00000144 decrypt
0801ce20 g       *ABS*	00000000 __flash_rwdata_start
08016474 g     F .text	00000088 .hidden __eqdf2
0801f0bc g       *ABS*	00000000 __alt_heap_start
08002560 g     F .text	0000003c printf
08000f60 g     F .text	00000028 RotWord
08014aa4 g     F .text	0000009c _wcrtomb_r
08000f88 g     F .text	000000e4 SubWord
0800c154 g     F .text	0000005c __sseek
080085b8 g     F .text	00000010 __sinit
08012154 g     F .text	00000140 __swbuf_r
0800932c g     F .text	0000007c _setlocale_r
08008410 g     F .text	00000078 __sfmoreglue
08010a44 g     F .text	00000018 ungetc
08000328 g     F .text	00000068 charsToHex
0801801c g     F .text	00000024 __malloc_unlock
0800c2f8 g     F .text	000015e4 _strtod_r
0800a220 g     F .text	0000015c memmove
080085a0 g     F .text	00000018 _cleanup
0800a4a4 g     F .text	000000a8 _Balloc
080164fc g     F .text	000000dc .hidden __gtdf2
08019c04 g     F .text	00000024 altera_nios2_gen2_irq_init
08000000 g     F .entry	0000000c __reset
080182f0 g     F .text	00000078 times
08000020 g       *ABS*	00000000 __flash_exceptions_start
0801a2b4 g     O .rodata	00000100 aes_sbox
08012748 g     F .text	0000005c _fstat_r
0801ef74 g     O .bss	00000004 errno
08006544 g     F .text	0000001c __svfscanf
0800c0d0 g     F .text	00000008 __seofread
08013704 g     F .text	000013a0 ___svfiprintf_internal_r
0801ef7c g     O .bss	00000004 alt_argv
0801ace8 g     O .rwdata	00000600 gf_mul
08000954 g     F .text	00000124 ShiftRows
08024dd4 g       *ABS*	00000000 _gp
0801bbf4 g     O .rwdata	00000180 alt_fd_list
0800259c g     F .text	00000008 _putchar_r
08019c28 g     F .text	00000090 alt_find_dev
0800a0d8 g     F .text	00000148 memcpy
08002794 g     F .text	00000008 _times_r
080130f4 g     F .text	0000025c __hexnan
08008260 g     F .text	0000000c _cleanup_r
080022fc g     F .text	000000dc .hidden __floatsidf
08019760 g     F .text	0000007c alt_io_redirect
080165d8 g     F .text	000000f4 .hidden __ltdf2
0801a2b4 g       *ABS*	00000000 __DTOR_END__
0800267c g     F .text	00000014 puts
08019e84 g     F .text	0000009c alt_exception_cause_generated_bad_addr
08009e7c g     F .text	000000d8 mbrtowc
0800be18 g     F .text	00000074 __fpclassifyd
08006560 g     F .text	0000004c _vfscanf_r
0800b340 g     F .text	000000a4 __ratio
0801207c g     F .text	0000001c __vfiprintf_internal
08018b9c g     F .text	0000021c altera_avalon_jtag_uart_read
08002530 g     F .text	00000030 _printf_r
10001080 g       *ABS*	00000000 __alt_mem_onchip_memory2_0
08001848 g     F .text	00000064 .hidden __udivsi3
08017ccc g     F .text	000000ac isatty
080092fc g     F .text	00000030 iswspace
0801aa2c g     O .rodata	000000c8 __mprec_tens
080093a8 g     F .text	0000000c __locale_charset
08015b00 g     F .text	000000c8 .hidden __lesf2
08014d98 g     F .text	00000074 .hidden __fixunsdfsi
0801ef70 g     O .bss	00000004 __malloc_top_pad
0800e1e4 g     F .text	0000001c strtoul
0801cde4 g     O .rwdata	00000004 __mb_cur_max
080093d8 g     F .text	0000000c _localeconv_r
0800e200 g     F .text	00000320 _strtoull_r
0800a8d8 g     F .text	0000003c __i2b
08008cac g     F .text	000004c8 __sfvwrite_r
0800be8c g     F .text	00000054 _sbrk_r
08013404 g     F .text	00000060 _read_r
0801ce08 g     O .rwdata	00000004 alt_max_fd
0801ef58 g     O .bss	00000004 run_mode
0801243c g     F .text	000000f0 _fclose_r
08008228 g     F .text	00000030 fflush
0801ef6c g     O .bss	00000004 __malloc_max_sbrked_mem
08000d60 g     F .text	00000200 KeyExpansion
08015bc8 g     F .text	000008ac .hidden __adddf3
080159cc g     F .text	00000078 .hidden __nesf2
0800b0e8 g     F .text	0000010c __b2d
08015408 g     F .text	000005c4 .hidden __umoddi3
08017ea0 g     F .text	000000dc lseek
0801cdd8 g     O .rwdata	00000004 _global_impure_ptr
0800b6c4 g     F .text	00000564 _realloc_r
0801f0bc g       *ABS*	00000000 __bss_end
0801958c g     F .text	000000f0 alt_iic_isr_register
08019afc g     F .text	00000108 alt_tick
0801ab94 g     O .rodata	00000100 __hexdig
08014e0c g     F .text	000005fc .hidden __udivdi3
080126a4 g     F .text	00000024 _fputwc_r
0801aa04 g     O .rodata	00000028 __mprec_bigtens
0800a6bc g     F .text	00000104 __s2b
080023d8 g     F .text	000000a8 .hidden __floatunsidf
0800ae28 g     F .text	00000060 __mcmp
080085d8 g     F .text	00000018 __fp_lock_all
08019540 g     F .text	0000004c alt_ic_irq_enabled
08019a60 g     F .text	0000009c alt_alarm_stop
0800dc4c g     F .text	0000001c strtol
0801ef84 g     O .bss	00000004 alt_irq_active
080000fc g     F .exceptions	000000d4 alt_irq_handler
0801bbcc g     O .rwdata	00000028 alt_dev_null
080191fc g     F .text	00000020 alt_dcache_flush_all
0800a7c0 g     F .text	00000068 __hi0bits
08017834 g     F .text	00000080 .hidden __fixdfsi
0800d8dc g     F .text	00000018 strtod
0801ce20 g       *ABS*	00000000 __ram_rwdata_end
0801ce00 g     O .rwdata	00000008 alt_dev_list
080183a4 g     F .text	00000100 write
0800b55c g     F .text	000000a0 _putc_r
08015a44 g     F .text	000000bc .hidden __gtsf2
0801ace8 g       *ABS*	00000000 __ram_rodata_end
08017bd8 g     F .text	000000b8 fstat
080165d8 g     F .text	000000f4 .hidden __ledf2
0800aba0 g     F .text	00000140 __pow5mult
08010b70 g     F .text	0000150c ___vfiprintf_internal_r
0801ef64 g     O .bss	00000004 __nlocale_changed
080018ac g     F .text	00000058 .hidden __umodsi3
080026cc g     F .text	00000030 _scanf_r
0801f0bc g       *ABS*	00000000 end
080186d8 g     F .text	000000c0 altera_avalon_jtag_uart_init
080001d0 g     F .exceptions	00000060 alt_instruction_exception_entry
0801a2b4 g       *ABS*	00000000 __CTOR_LIST__
10000000 g       *ABS*	00000000 __alt_stack_pointer
08019054 g     F .text	0000007c alt_avalon_timer_sc_init
08002480 g     F .text	00000064 .hidden __clzsi2
08018db8 g     F .text	00000224 altera_avalon_jtag_uart_write
080085c8 g     F .text	00000004 __sfp_lock_acquire
08009ff4 g     F .text	000000e4 memchr
0800279c g     F .text	000022dc ___vfprintf_internal_r
0800bfb8 g     F .text	00000058 _sprintf_r
0800899c g     F .text	00000310 _free_r
080093b4 g     F .text	00000010 __locale_mb_cur_max
08000a78 g     F .text	000002e8 MixColumns
0801a100 g     F .text	00000180 __call_exitprocs
0801ef60 g     O .bss	00000004 __mlocale_changed
0801cde8 g     O .rwdata	00000004 __malloc_sbrk_base
08000230 g     F .text	0000003c _start
0801ef88 g     O .bss	00000004 _alt_tick_rate
0800dc68 g     F .text	00000304 _strtoll_r
0800ace0 g     F .text	00000148 __lshift
0801ef8c g     O .bss	00000004 _alt_nticks
0801807c g     F .text	00000104 read
08018510 g     F .text	00000064 alt_sys_init
08013534 g     F .text	000001d0 __ssprint_r
08019fe8 g     F .text	00000118 __register_exitproc
08013464 g     F .text	000000d0 strncmp
0800a914 g     F .text	0000028c __multiply
08018a44 g     F .text	00000068 altera_avalon_jtag_uart_close
08001904 g     F .text	00000028 .hidden __mulsi3
0801ace8 g       *ABS*	00000000 __ram_rwdata_start
0801a2b4 g       *ABS*	00000000 __ram_rodata_start
0801ef94 g     O .bss	00000028 __malloc_current_mallinfo
080159cc g     F .text	00000078 .hidden __eqsf2
0800b1f4 g     F .text	0000014c __d2b
08018574 g     F .text	00000060 altera_avalon_jtag_uart_read_fd
0800df6c g     F .text	00000278 _strtoul_r
0801a3b4 g     O .rodata	00000100 aes_invsbox
08019dc0 g     F .text	000000c4 alt_get_fd
0801230c g     F .text	00000054 _close_r
08019f6c g     F .text	0000007c memcmp
08018634 g     F .text	00000050 altera_avalon_jtag_uart_close_fd
0801f0bc g       *ABS*	00000000 __alt_stack_base
08018684 g     F .text	00000054 altera_avalon_jtag_uart_ioctl_fd
080065ac g     F .text	00000154 __swsetup_r
08000390 g     F .text	00000524 encrypt
0800192c g     F .text	000009d0 .hidden __divdf3
08008488 g     F .text	00000118 __sfp
0800b458 g     F .text	00000078 __copybits
0801b7c4 g     O .rwdata	00000408 __malloc_av_
080085d4 g     F .text	00000004 __sinit_lock_release
080166cc g     F .text	0000086c .hidden __muldf3
0800c07c g     F .text	00000054 __sread
08008844 g     F .text	00000034 fread
08019cb8 g     F .text	00000108 alt_find_file
08019258 g     F .text	000000a4 alt_dev_llist_insert
08017ff8 g     F .text	00000024 __malloc_lock
08018204 g     F .text	000000b0 sbrk
0800e520 g     F .text	000022bc ___svfprintf_internal_r
080081cc g     F .text	0000005c _fflush_r
080008b4 g     F .text	000000a0 SubBytes
08012360 g     F .text	000000dc _calloc_r
0801ef58 g       *ABS*	00000000 __bss_start
0800a37c g     F .text	00000128 memset
08001368 g     F .text	000003e8 main
0801ef80 g     O .bss	00000004 alt_envp
0801ef68 g     O .bss	00000004 __malloc_max_total_mem
080185d4 g     F .text	00000060 altera_avalon_jtag_uart_write_fd
08012294 g     F .text	00000018 __swbuf
08015b00 g     F .text	000000c8 .hidden __ltsf2
08008608 g     F .text	0000023c _fread_r
0800c1b0 g     F .text	00000008 __sclose
10000000 g       *ABS*	00000000 __alt_heap_limit
0801252c g     F .text	00000014 fclose
0800d9f4 g     F .text	00000258 _strtol_r
080178b4 g     F .text	000001a8 .hidden __truncdfsf2
08006928 g     F .text	00001688 _dtoa_r
080095c4 g     F .text	0000080c _malloc_r
08014c00 g     F .text	00000030 __ascii_wctomb
0801ce0c g     O .rwdata	00000004 alt_errno
080107dc g     F .text	000000d4 __submore
08009174 g     F .text	000000c4 _fwalk
08009f98 g     F .text	0000005c _mbtowc_r
0800b5fc g     F .text	000000c8 putc
08001750 g     F .text	00000084 .hidden __divsi3
08008878 g     F .text	00000124 _malloc_trim_r
0801a2b4 g       *ABS*	00000000 __CTOR_END__
0800c1b8 g     F .text	000000dc strcmp
0801a2b4 g       *ABS*	00000000 __flash_rodata_start
0801a2b4 g       *ABS*	00000000 __DTOR_LIST__
08016474 g     F .text	00000088 .hidden __nedf2
080184d8 g     F .text	00000038 alt_irq_init
08018180 g     F .text	00000084 alt_release_fd
0800c010 g     F .text	0000006c sprintf
0801a599 g     O .rodata	00000100 .hidden __clz_tab
0801ef5c g     O .bss	00000004 _PathLocale
0800d8f4 g     F .text	00000100 strtof
08019f20 g     F .text	00000014 atexit
08015a44 g     F .text	000000bc .hidden __gesf2
080122ac g     F .text	00000060 _write_r
080093e4 g     F .text	00000018 setlocale
08002690 g     F .text	0000003c scanf
0800bfb0 g     F .text	00000008 nanf
0801cddc g     O .rwdata	00000004 _impure_ptr
0801ef78 g     O .bss	00000004 alt_argc
08007fb0 g     F .text	0000021c __sflush_r
08009dd0 g     F .text	000000ac _mbrtowc_r
0801935c g     F .text	00000060 _do_dtors
080093d0 g     F .text	00000008 __locale_cjk_lang
0800bc44 g     F .text	000001d4 __srefill_r
08000020 g       .exceptions	00000000 alt_irq_entry
08009f54 g     F .text	00000044 __ascii_mbtowc
0800b084 g     F .text	00000064 __ulp
080085f0 g     F .text	00000018 __fp_unlock_all
0801cdf8 g     O .rwdata	00000008 alt_fs_list
0801b2e8 g     O .rwdata	00000040 Rcon
08000020 g       *ABS*	00000000 __ram_exceptions_start
080093fc g     F .text	0000000c localeconv
080193dc g     F .text	00000050 alt_ic_isr_register
0801ce20 g       *ABS*	00000000 _edata
0801f0bc g       *ABS*	00000000 _end
08012540 g     F .text	00000164 __fputwc
08000230 g       *ABS*	00000000 __ram_exceptions_end
080064dc g     F .text	00000068 vfscanf
08018aac g     F .text	000000f0 altera_avalon_jtag_uart_ioctl
080194b4 g     F .text	0000008c alt_ic_irq_disable
0800c0d8 g     F .text	0000007c __swrite
0801cdec g     O .rwdata	00000004 __malloc_trim_threshold
080093c4 g     F .text	0000000c __locale_msgcharset
08019f34 g     F .text	00000038 exit
08009238 g     F .text	000000c4 _fwalk_reent
0800ae88 g     F .text	000001fc __mdiff
080017d4 g     F .text	00000074 .hidden __modsi3
0801cde0 g     O .rwdata	00000004 __ctype_ptr__
10000000 g       *ABS*	00000000 __alt_data_end
08000020 g     F .exceptions	00000000 alt_exception
080085cc g     F .text	00000004 __sfp_lock_release
08000000 g       *ABS*	00000000 __alt_mem_sdram
0800bee0 g     F .text	000000d0 __sccl
0801a730 g     O .rodata	00000101 _ctype_
0801cdf0 g     O .rwdata	00000004 __mbtowc
0801a280 g     F .text	00000034 _exit
080190d0 g     F .text	0000012c alt_alarm_start
08014c8c g     F .text	0000010c .hidden __muldi3
0801cdd4 g     O .rwdata	00000004 AES_PTR
08009408 g     F .text	000001bc __smakebuf_r
080026fc g     F .text	00000098 strlen
08019904 g     F .text	0000015c open
080164fc g     F .text	000000dc .hidden __gedf2
080128a4 g     F .text	00000850 __gethex
080024e4 g     F .text	0000004c clock
0801cdf4 g     O .rwdata	00000004 __wctomb
08010b58 g     F .text	00000018 __sprint_r
080193bc g     F .text	00000020 alt_icache_flush_all
0801ce14 g     O .rwdata	00000004 alt_priority_mask
0801942c g     F .text	00000088 alt_ic_irq_enable
08004a78 g     F .text	0000001c __vfprintf_internal
08014c30 g     F .text	0000005c _wctomb_r
08016f38 g     F .text	000008fc .hidden __subdf3
0800a828 g     F .text	000000b0 __lo0bits
08004b50 g     F .text	0000198c __svfscanf_r
0801ce18 g     O .rwdata	00000008 alt_alarm_list
080108b0 g     F .text	00000194 _ungetc_r
0800106c g     F .text	000001b8 AddRoundKey
080192fc g     F .text	00000060 _do_ctors
08014b40 g     F .text	000000c0 wcrtomb
08017a98 g     F .text	000000d8 close
08017de0 g     F .text	00000084 alt_load
080126c8 g     F .text	00000080 fputwc
080085d0 g     F .text	00000004 __sinit_lock_acquire
0800a574 g     F .text	00000148 __multadd
0800a54c g     F .text	00000028 _Bfree



Disassembly of section .entry:

08000000 <__reset>:
 * Jump to the _start entry point in the .text section if reset code
 * is allowed or if optimizing for RTL simulation.
 */
#if defined(ALT_ALLOW_CODE_AT_RESET) || defined(ALT_SIM_OPTIMIZE)
    /* Jump to the _start entry point in the .text section. */
    movhi r1, %hi(_start)
 8000000:	00420034 	movhi	at,2048
    ori r1, r1, %lo(_start)
 8000004:	08408c14 	ori	at,at,560
    jmp r1
 8000008:	0800683a 	jmp	at
	...

Disassembly of section .exceptions:

08000020 <alt_exception>:

#else /* ALT_EXCEPTION_STACK disabled */
        /* 
         * Reserve space on normal stack for registers about to be pushed.
         */
        addi  sp, sp, -76
 8000020:	deffed04 	addi	sp,sp,-76
         * documentation for details).
         *
         * Leave a gap in the stack frame at 4(sp) for the muldiv handler to
         * store zero into.
         */
        stw   ra,  0(sp)
 8000024:	dfc00015 	stw	ra,0(sp)
        stw   r1,   8(sp)
 8000028:	d8400215 	stw	at,8(sp)
        stw   r2,  12(sp)
 800002c:	d8800315 	stw	r2,12(sp)
        stw   r3,  16(sp)
 8000030:	d8c00415 	stw	r3,16(sp)
        stw   r4,  20(sp)
 8000034:	d9000515 	stw	r4,20(sp)
        stw   r5,  24(sp)
 8000038:	d9400615 	stw	r5,24(sp)
        stw   r6,  28(sp)
 800003c:	d9800715 	stw	r6,28(sp)
        stw   r7,  32(sp)
 8000040:	d9c00815 	stw	r7,32(sp)
        rdctl r5, estatus   /* Read early to avoid usage stall */
 8000044:	000b307a 	rdctl	r5,estatus
        stw   r8,  36(sp)
 8000048:	da000915 	stw	r8,36(sp)
        stw   r9,  40(sp)
 800004c:	da400a15 	stw	r9,40(sp)
        stw   r10, 44(sp)
 8000050:	da800b15 	stw	r10,44(sp)
        stw   r11, 48(sp)
 8000054:	dac00c15 	stw	r11,48(sp)
        stw   r12, 52(sp)
 8000058:	db000d15 	stw	r12,52(sp)
        stw   r13, 56(sp)
 800005c:	db400e15 	stw	r13,56(sp)
        stw   r14, 60(sp)
 8000060:	db800f15 	stw	r14,60(sp)
        stw   r15, 64(sp)
 8000064:	dbc01015 	stw	r15,64(sp)
        /*
         * ea-4 contains the address of the instruction being executed
         * when the exception occured. For interrupt exceptions, we will
         * will be re-issue the isntruction. Store it in 72(sp)
         */
        stw   r5,  68(sp)  /* estatus */
 8000068:	d9401115 	stw	r5,68(sp)
        addi  r15, ea, -4  /* instruction that caused exception */
 800006c:	ebffff04 	addi	r15,ea,-4
        stw   r15,  72(sp)
 8000070:	dbc01215 	stw	r15,72(sp)
#else
        /*
         * Test to see if the exception was a software exception or caused 
         * by an external interrupt, and vector accordingly.
         */
        rdctl r4, ipending
 8000074:	0009313a 	rdctl	r4,ipending
        andi  r2, r5, 1
 8000078:	2880004c 	andi	r2,r5,1
        beq   r2, zero, .Lnot_irq
 800007c:	10000326 	beq	r2,zero,800008c <alt_exception+0x6c>
        beq   r4, zero, .Lnot_irq
 8000080:	20000226 	beq	r4,zero,800008c <alt_exception+0x6c>
        /*
         * Now that all necessary registers have been preserved, call 
         * alt_irq_handler() to process the interrupts.
         */

        call alt_irq_handler
 8000084:	80000fc0 	call	80000fc <alt_irq_handler>

        .section .exceptions.irqreturn, "xa"

        br    .Lexception_exit
 8000088:	00000706 	br	80000a8 <alt_exception+0x88>
         * upon completion, so we write ea (address of instruction *after*
         * the one where the exception occured) into 72(sp). The actual
         * instruction that caused the exception is written in r2, which these
         * handlers will utilize.
         */
        stw ea, 72(sp) /* EA is PC+4 so will skip over instruction causing exception */
 800008c:	df401215 	stw	ea,72(sp)
.Lunknown_16bit:
        addi.n r4, r4, 2 /* Need PC+2 to skip over instruction causing exception */
        stw r4, 72(sp)

#else /* CDX is not Enabled and all instructions are 32bits */
        ldw r2, -4(ea) /* Instruction value that caused exception */
 8000090:	e8bfff17 	ldw	r2,-4(ea)
         * debugger is present) or go into an infinite loop since the
         * handling behavior is undefined; in that case we will not return here.
         */

        /* Load exception-causing address as first argument (r4) */
        addi   r4, ea, -4
 8000094:	e93fff04 	addi	r4,ea,-4

        /* Call the instruction-exception entry */
        call   alt_instruction_exception_entry
 8000098:	80001d00 	call	80001d0 <alt_instruction_exception_entry>
         * instruction
         *
         * Return code was 0: Skip. The instruction after the exception is
         * already stored in 72(sp).
         */
        bne   r2, r0, .Lexception_exit
 800009c:	1000021e 	bne	r2,zero,80000a8 <alt_exception+0x88>

        /*
         * Otherwise, modify 72(sp) to re-issue the instruction that caused the
         * exception.
         */
        addi  r15, ea, -4  /* instruction that caused exception */
 80000a0:	ebffff04 	addi	r15,ea,-4
        stw   r15,  72(sp)
 80000a4:	dbc01215 	stw	r15,72(sp)
        /* 
         * Restore the saved registers, so that all general purpose registers 
         * have been restored to their state at the time the interrupt occured.
         */

        ldw   r5,  68(sp)
 80000a8:	d9401117 	ldw	r5,68(sp)
        ldw   ea,  72(sp)  /* This becomes the PC once eret is executed */
 80000ac:	df401217 	ldw	ea,72(sp)
        ldw   ra,   0(sp)
 80000b0:	dfc00017 	ldw	ra,0(sp)

        wrctl estatus, r5
 80000b4:	2801707a 	wrctl	estatus,r5

        ldw   r1,   8(sp)
 80000b8:	d8400217 	ldw	at,8(sp)
        ldw   r2,  12(sp)
 80000bc:	d8800317 	ldw	r2,12(sp)
        ldw   r3,  16(sp)
 80000c0:	d8c00417 	ldw	r3,16(sp)
        ldw   r4,  20(sp)
 80000c4:	d9000517 	ldw	r4,20(sp)
        ldw   r5,  24(sp)
 80000c8:	d9400617 	ldw	r5,24(sp)
        ldw   r6,  28(sp)
 80000cc:	d9800717 	ldw	r6,28(sp)
        ldw   r7,  32(sp)
 80000d0:	d9c00817 	ldw	r7,32(sp)

#if defined(ALT_EXCEPTION_STACK) && defined(ALT_STACK_CHECK)
        ldw   et, %gprel(alt_exception_old_stack_limit)(gp)
#endif

        ldw   r8,  36(sp)
 80000d4:	da000917 	ldw	r8,36(sp)
        ldw   r9,  40(sp)
 80000d8:	da400a17 	ldw	r9,40(sp)
        ldw   r10, 44(sp)
 80000dc:	da800b17 	ldw	r10,44(sp)
        ldw   r11, 48(sp)
 80000e0:	dac00c17 	ldw	r11,48(sp)
        ldw   r12, 52(sp)
 80000e4:	db000d17 	ldw	r12,52(sp)
        ldw   r13, 56(sp)
 80000e8:	db400e17 	ldw	r13,56(sp)
        ldw   r14, 60(sp)
 80000ec:	db800f17 	ldw	r14,60(sp)
        ldw   r15, 64(sp)
 80000f0:	dbc01017 	ldw	r15,64(sp)
        stw   et, %gprel(alt_stack_limit_value)(gp)
        stw   zero, %gprel(alt_exception_old_stack_limit)(gp)
#endif /* ALT_STACK_CHECK */
        ldw   sp,  76(sp)
#else /* ALT_EXCEPTION_STACK disabled */
        addi  sp, sp, 76
 80000f4:	dec01304 	addi	sp,sp,76

        /*
         * Return to the interrupted instruction.
         */

        eret
 80000f8:	ef80083a 	eret

080000fc <alt_irq_handler>:
 * instruction is present if the macro ALT_CI_INTERRUPT_VECTOR defined.
 */

void alt_irq_handler (void) __attribute__ ((section (".exceptions")));
void alt_irq_handler (void)
{
 80000fc:	defff904 	addi	sp,sp,-28
 8000100:	dfc00615 	stw	ra,24(sp)
 8000104:	df000515 	stw	fp,20(sp)
 8000108:	df000504 	addi	fp,sp,20
  
  /*
   * Notify the operating system that we are at interrupt level.
   */ 
  
  ALT_OS_INT_ENTER();
 800010c:	0001883a 	nop
#ifndef NIOS2_EIC_PRESENT
static ALT_INLINE alt_u32 ALT_ALWAYS_INLINE alt_irq_pending (void)
{
  alt_u32 active;

  NIOS2_READ_IPENDING (active);
 8000110:	0005313a 	rdctl	r2,ipending
 8000114:	e0bffe15 	stw	r2,-8(fp)

  return active;
 8000118:	e0bffe17 	ldw	r2,-8(fp)
   * Consider the case where the high priority interupt is asserted during
   * the interrupt entry sequence for a lower priority interrupt to see why
   * this is the case.
   */

  active = alt_irq_pending ();
 800011c:	e0bffb15 	stw	r2,-20(fp)

  do
  {
    i = 0;
 8000120:	e03ffd15 	stw	zero,-12(fp)
    mask = 1;
 8000124:	00800044 	movi	r2,1
 8000128:	e0bffc15 	stw	r2,-16(fp)
     * called to clear the interrupt condition.
     */

    do
    {
      if (active & mask)
 800012c:	e0fffb17 	ldw	r3,-20(fp)
 8000130:	e0bffc17 	ldw	r2,-16(fp)
 8000134:	1884703a 	and	r2,r3,r2
 8000138:	10001426 	beq	r2,zero,800018c <alt_irq_handler+0x90>
      { 
#ifdef ALT_ENHANCED_INTERRUPT_API_PRESENT
        alt_irq[i].handler(alt_irq[i].context); 
 800013c:	008200b4 	movhi	r2,2050
 8000140:	10bbef04 	addi	r2,r2,-4164
 8000144:	e0fffd17 	ldw	r3,-12(fp)
 8000148:	180690fa 	slli	r3,r3,3
 800014c:	10c5883a 	add	r2,r2,r3
 8000150:	10c00017 	ldw	r3,0(r2)
 8000154:	008200b4 	movhi	r2,2050
 8000158:	10bbef04 	addi	r2,r2,-4164
 800015c:	e13ffd17 	ldw	r4,-12(fp)
 8000160:	200890fa 	slli	r4,r4,3
 8000164:	1105883a 	add	r2,r2,r4
 8000168:	10800104 	addi	r2,r2,4
 800016c:	10800017 	ldw	r2,0(r2)
 8000170:	1009883a 	mov	r4,r2
 8000174:	183ee83a 	callr	r3
#else
        alt_irq[i].handler(alt_irq[i].context, i); 
#endif
        break;
 8000178:	0001883a 	nop
#ifndef NIOS2_EIC_PRESENT
static ALT_INLINE alt_u32 ALT_ALWAYS_INLINE alt_irq_pending (void)
{
  alt_u32 active;

  NIOS2_READ_IPENDING (active);
 800017c:	0005313a 	rdctl	r2,ipending
 8000180:	e0bfff15 	stw	r2,-4(fp)

  return active;
 8000184:	e0bfff17 	ldw	r2,-4(fp)
 8000188:	00000706 	br	80001a8 <alt_irq_handler+0xac>
      }
      mask <<= 1;
 800018c:	e0bffc17 	ldw	r2,-16(fp)
 8000190:	1085883a 	add	r2,r2,r2
 8000194:	e0bffc15 	stw	r2,-16(fp)
      i++;
 8000198:	e0bffd17 	ldw	r2,-12(fp)
 800019c:	10800044 	addi	r2,r2,1
 80001a0:	e0bffd15 	stw	r2,-12(fp)

    } while (1);
 80001a4:	003fe106 	br	800012c <__alt_mem_onchip_memory2_0+0xf7fff0ac>

    active = alt_irq_pending ();
 80001a8:	e0bffb15 	stw	r2,-20(fp)
    
  } while (active);
 80001ac:	e0bffb17 	ldw	r2,-20(fp)
 80001b0:	103fdb1e 	bne	r2,zero,8000120 <__alt_mem_onchip_memory2_0+0xf7fff0a0>

  /*
   * Notify the operating system that interrupt processing is complete.
   */ 

  ALT_OS_INT_EXIT();
 80001b4:	0001883a 	nop
}
 80001b8:	0001883a 	nop
 80001bc:	e037883a 	mov	sp,fp
 80001c0:	dfc00117 	ldw	ra,4(sp)
 80001c4:	df000017 	ldw	fp,0(sp)
 80001c8:	dec00204 	addi	sp,sp,8
 80001cc:	f800283a 	ret

080001d0 <alt_instruction_exception_entry>:
 * that handler if it has been registered. Absent a handler, it will
 * break break or hang as discussed below.
 */
int 
alt_instruction_exception_entry (alt_u32 exception_pc)
{
 80001d0:	defffb04 	addi	sp,sp,-20
 80001d4:	dfc00415 	stw	ra,16(sp)
 80001d8:	df000315 	stw	fp,12(sp)
 80001dc:	df000304 	addi	fp,sp,12
 80001e0:	e13fff15 	stw	r4,-4(fp)
  cause = ( (cause & NIOS2_EXCEPTION_REG_CAUSE_MASK) >>
              NIOS2_EXCEPTION_REG_CAUSE_OFST );

  NIOS2_READ_BADADDR(badaddr);
#else
  cause = NIOS2_EXCEPTION_CAUSE_NOT_PRESENT;
 80001e4:	00bfffc4 	movi	r2,-1
 80001e8:	e0bffd15 	stw	r2,-12(fp)
  badaddr = 0;
 80001ec:	e03ffe15 	stw	zero,-8(fp)
#endif /* NIOS2_HAS_EXTRA_EXCEPTION_INFO */

  if(alt_instruction_exception_handler) {
 80001f0:	d0a86f17 	ldw	r2,-24132(gp)
 80001f4:	10000726 	beq	r2,zero,8000214 <alt_instruction_exception_entry+0x44>
     * Call handler. Its return value indicates whether the exception-causing
     * instruction should be re-issued. The code that called us,
     * alt_eceptions_entry.S, will look at this value and adjust the ea
     * register as necessary
     */
    return alt_instruction_exception_handler(cause, exception_pc, badaddr);
 80001f8:	d0a86f17 	ldw	r2,-24132(gp)
 80001fc:	e0fffd17 	ldw	r3,-12(fp)
 8000200:	e1bffe17 	ldw	r6,-8(fp)
 8000204:	e17fff17 	ldw	r5,-4(fp)
 8000208:	1809883a 	mov	r4,r3
 800020c:	103ee83a 	callr	r2
 8000210:	00000206 	br	800021c <alt_instruction_exception_entry+0x4c>
   *    (a peripheral which negates its interrupt output before its
   *    interrupt handler has been executed will cause spurious interrupts)
   */
  else {
#ifdef NIOS2_HAS_DEBUG_STUB
    NIOS2_BREAK();
 8000214:	003da03a 	break	0
      ;
#endif /* NIOS2_HAS_DEBUG_STUB */
  }

  /* We should not get here. Remove compiler warning. */
  return NIOS2_EXCEPTION_RETURN_REISSUE_INST;
 8000218:	0005883a 	mov	r2,zero
}
 800021c:	e037883a 	mov	sp,fp
 8000220:	dfc00117 	ldw	ra,4(sp)
 8000224:	df000017 	ldw	fp,0(sp)
 8000228:	dec00204 	addi	sp,sp,8
 800022c:	f800283a 	ret

Disassembly of section .text:

08000230 <_start>:

    /*
     * Now that the caches are initialized, set up the stack pointer and global pointer.
     * The values provided by the linker are assumed to be correctly aligned.
     */
    movhi sp, %hi(__alt_stack_pointer)
 8000230:	06c40034 	movhi	sp,4096
    ori sp, sp, %lo(__alt_stack_pointer)
 8000234:	dec00014 	ori	sp,sp,0
    movhi gp, %hi(_gp)
 8000238:	068200b4 	movhi	gp,2050
    ori gp, gp, %lo(_gp)
 800023c:	d6937514 	ori	gp,gp,19924
 */
#ifndef ALT_SIM_OPTIMIZE
    /* Log that the BSS is about to be cleared. */
    ALT_LOG_PUTS(alt_log_msg_bss)

    movhi r2, %hi(__bss_start)
 8000240:	00820074 	movhi	r2,2049
    ori r2, r2, %lo(__bss_start)
 8000244:	10bbd614 	ori	r2,r2,61272

    movhi r3, %hi(__bss_end)
 8000248:	00c20074 	movhi	r3,2049
    ori r3, r3, %lo(__bss_end)
 800024c:	18fc2f14 	ori	r3,r3,61628

    beq r2, r3, 1f
 8000250:	10c00326 	beq	r2,r3,8000260 <_start+0x30>

0:
    stw zero, (r2)
 8000254:	10000015 	stw	zero,0(r2)
    addi r2, r2, 4
 8000258:	10800104 	addi	r2,r2,4
    bltu r2, r3, 0b
 800025c:	10fffd36 	bltu	r2,r3,8000254 <__alt_mem_onchip_memory2_0+0xf7fff1d4>
     * section aren't defined until alt_load() has been called).
     */
    mov   et, zero
#endif

    call alt_load
 8000260:	8017de00 	call	8017de0 <alt_load>

    /* Log that alt_main is about to be called. */
    ALT_LOG_PUTS(alt_log_msg_alt_main)

    /* Call the C entry point. It should never return. */
    call alt_main
 8000264:	8017f7c0 	call	8017f7c <alt_main>

08000268 <alt_after_alt_main>:

    /* Wait in infinite loop in case alt_main does return. */
alt_after_alt_main:
    br alt_after_alt_main
 8000268:	003fff06 	br	8000268 <__alt_mem_onchip_memory2_0+0xf7fff1e8>

0800026c <charToHex>:
 *
 *  Input: a character c (e.g. 'A')
 *  Output: converted 4-bit value (e.g. 0xA)
 */
char charToHex(char c)
{
 800026c:	defffd04 	addi	sp,sp,-12
 8000270:	df000215 	stw	fp,8(sp)
 8000274:	df000204 	addi	fp,sp,8
 8000278:	2005883a 	mov	r2,r4
 800027c:	e0bfff05 	stb	r2,-4(fp)
	char hex = c;
 8000280:	e0bfff03 	ldbu	r2,-4(fp)
 8000284:	e0bffe05 	stb	r2,-8(fp)

	if (hex >= '0' && hex <= '9')
 8000288:	e0bffe07 	ldb	r2,-8(fp)
 800028c:	10800c10 	cmplti	r2,r2,48
 8000290:	1000071e 	bne	r2,zero,80002b0 <charToHex+0x44>
 8000294:	e0bffe07 	ldb	r2,-8(fp)
 8000298:	10800e88 	cmpgei	r2,r2,58
 800029c:	1000041e 	bne	r2,zero,80002b0 <charToHex+0x44>
		hex -= '0';
 80002a0:	e0bffe03 	ldbu	r2,-8(fp)
 80002a4:	10bff404 	addi	r2,r2,-48
 80002a8:	e0bffe05 	stb	r2,-8(fp)
 80002ac:	00001906 	br	8000314 <charToHex+0xa8>
	else if (hex >= 'A' && hex <= 'F')
 80002b0:	e0bffe07 	ldb	r2,-8(fp)
 80002b4:	10801050 	cmplti	r2,r2,65
 80002b8:	10000a1e 	bne	r2,zero,80002e4 <charToHex+0x78>
 80002bc:	e0bffe07 	ldb	r2,-8(fp)
 80002c0:	108011c8 	cmpgei	r2,r2,71
 80002c4:	1000071e 	bne	r2,zero,80002e4 <charToHex+0x78>
	{
		hex -= 'A';
 80002c8:	e0bffe03 	ldbu	r2,-8(fp)
 80002cc:	10bfefc4 	addi	r2,r2,-65
 80002d0:	e0bffe05 	stb	r2,-8(fp)
		hex += 10;
 80002d4:	e0bffe03 	ldbu	r2,-8(fp)
 80002d8:	10800284 	addi	r2,r2,10
 80002dc:	e0bffe05 	stb	r2,-8(fp)
 80002e0:	00000c06 	br	8000314 <charToHex+0xa8>
	}
	else if (hex >= 'a' && hex <= 'f')
 80002e4:	e0bffe07 	ldb	r2,-8(fp)
 80002e8:	10801850 	cmplti	r2,r2,97
 80002ec:	1000091e 	bne	r2,zero,8000314 <charToHex+0xa8>
 80002f0:	e0bffe07 	ldb	r2,-8(fp)
 80002f4:	108019c8 	cmpgei	r2,r2,103
 80002f8:	1000061e 	bne	r2,zero,8000314 <charToHex+0xa8>
	{
		hex -= 'a';
 80002fc:	e0bffe03 	ldbu	r2,-8(fp)
 8000300:	10bfe7c4 	addi	r2,r2,-97
 8000304:	e0bffe05 	stb	r2,-8(fp)
		hex += 10;
 8000308:	e0bffe03 	ldbu	r2,-8(fp)
 800030c:	10800284 	addi	r2,r2,10
 8000310:	e0bffe05 	stb	r2,-8(fp)
	}
	return hex;
 8000314:	e0bffe03 	ldbu	r2,-8(fp)
}
 8000318:	e037883a 	mov	sp,fp
 800031c:	df000017 	ldw	fp,0(sp)
 8000320:	dec00104 	addi	sp,sp,4
 8000324:	f800283a 	ret

08000328 <charsToHex>:
 *
 *  Input: two characters c1 and c2 (e.g. 'A' and '7')
 *  Output: converted byte value (e.g. 0xA7)
 */
char charsToHex(char c1, char c2)
{
 8000328:	defffb04 	addi	sp,sp,-20
 800032c:	dfc00415 	stw	ra,16(sp)
 8000330:	df000315 	stw	fp,12(sp)
 8000334:	df000304 	addi	fp,sp,12
 8000338:	2007883a 	mov	r3,r4
 800033c:	2805883a 	mov	r2,r5
 8000340:	e0fffe05 	stb	r3,-8(fp)
 8000344:	e0bfff05 	stb	r2,-4(fp)
	char hex1 = charToHex(c1);
 8000348:	e0bffe07 	ldb	r2,-8(fp)
 800034c:	1009883a 	mov	r4,r2
 8000350:	800026c0 	call	800026c <charToHex>
 8000354:	e0bffd05 	stb	r2,-12(fp)
	char hex2 = charToHex(c2);
 8000358:	e0bfff07 	ldb	r2,-4(fp)
 800035c:	1009883a 	mov	r4,r2
 8000360:	800026c0 	call	800026c <charToHex>
 8000364:	e0bffd45 	stb	r2,-11(fp)
	return (hex1 << 4) + hex2;
 8000368:	e0bffd03 	ldbu	r2,-12(fp)
 800036c:	1004913a 	slli	r2,r2,4
 8000370:	1007883a 	mov	r3,r2
 8000374:	e0bffd43 	ldbu	r2,-11(fp)
 8000378:	1885883a 	add	r2,r3,r2
}
 800037c:	e037883a 	mov	sp,fp
 8000380:	dfc00117 	ldw	ra,4(sp)
 8000384:	df000017 	ldw	fp,0(sp)
 8000388:	dec00204 	addi	sp,sp,8
 800038c:	f800283a 	ret

08000390 <encrypt>:
 *               key - Pointer to 4x 32-bit int array that contains the input key
 */

//WEEK 1
void encrypt(unsigned char * msg_ascii, unsigned char * key_ascii, unsigned int * msg_enc, unsigned int * key)
{
 8000390:	deffb004 	addi	sp,sp,-320
 8000394:	dfc04f15 	stw	ra,316(sp)
 8000398:	df004e15 	stw	fp,312(sp)
 800039c:	df004e04 	addi	fp,sp,312
 80003a0:	e13ffc15 	stw	r4,-16(fp)
 80003a4:	e17ffd15 	stw	r5,-12(fp)
 80003a8:	e1bffe15 	stw	r6,-8(fp)
 80003ac:	e1ffff15 	stw	r7,-4(fp)
	//Nr = 10, Nb = 4;

	unsigned char state[16];
	unsigned char word_key[16];
	unsigned int word[44];
	for(int i = 0; i < 16; i++)
 80003b0:	e03fb215 	stw	zero,-312(fp)
 80003b4:	00003506 	br	800048c <encrypt+0xfc>
	{
		state[i] = charsToHex(msg_ascii[2*i], msg_ascii[(2*i)+1]);
 80003b8:	e0bfb217 	ldw	r2,-312(fp)
 80003bc:	1085883a 	add	r2,r2,r2
 80003c0:	1007883a 	mov	r3,r2
 80003c4:	e0bffc17 	ldw	r2,-16(fp)
 80003c8:	10c5883a 	add	r2,r2,r3
 80003cc:	10800003 	ldbu	r2,0(r2)
 80003d0:	11003fcc 	andi	r4,r2,255
 80003d4:	2100201c 	xori	r4,r4,128
 80003d8:	213fe004 	addi	r4,r4,-128
 80003dc:	e0bfb217 	ldw	r2,-312(fp)
 80003e0:	1085883a 	add	r2,r2,r2
 80003e4:	10800044 	addi	r2,r2,1
 80003e8:	e0fffc17 	ldw	r3,-16(fp)
 80003ec:	1885883a 	add	r2,r3,r2
 80003f0:	10800003 	ldbu	r2,0(r2)
 80003f4:	10803fcc 	andi	r2,r2,255
 80003f8:	1080201c 	xori	r2,r2,128
 80003fc:	10bfe004 	addi	r2,r2,-128
 8000400:	100b883a 	mov	r5,r2
 8000404:	80003280 	call	8000328 <charsToHex>
 8000408:	1009883a 	mov	r4,r2
 800040c:	e0ffbc04 	addi	r3,fp,-272
 8000410:	e0bfb217 	ldw	r2,-312(fp)
 8000414:	1885883a 	add	r2,r3,r2
 8000418:	11000005 	stb	r4,0(r2)
		word_key[i] = charsToHex(key_ascii[2*i], key_ascii[(2*i)+1]);
 800041c:	e0bfb217 	ldw	r2,-312(fp)
 8000420:	1085883a 	add	r2,r2,r2
 8000424:	1007883a 	mov	r3,r2
 8000428:	e0bffd17 	ldw	r2,-12(fp)
 800042c:	10c5883a 	add	r2,r2,r3
 8000430:	10800003 	ldbu	r2,0(r2)
 8000434:	11003fcc 	andi	r4,r2,255
 8000438:	2100201c 	xori	r4,r4,128
 800043c:	213fe004 	addi	r4,r4,-128
 8000440:	e0bfb217 	ldw	r2,-312(fp)
 8000444:	1085883a 	add	r2,r2,r2
 8000448:	10800044 	addi	r2,r2,1
 800044c:	e0fffd17 	ldw	r3,-12(fp)
 8000450:	1885883a 	add	r2,r3,r2
 8000454:	10800003 	ldbu	r2,0(r2)
 8000458:	10803fcc 	andi	r2,r2,255
 800045c:	1080201c 	xori	r2,r2,128
 8000460:	10bfe004 	addi	r2,r2,-128
 8000464:	100b883a 	mov	r5,r2
 8000468:	80003280 	call	8000328 <charsToHex>
 800046c:	1009883a 	mov	r4,r2
 8000470:	e0ffc004 	addi	r3,fp,-256
 8000474:	e0bfb217 	ldw	r2,-312(fp)
 8000478:	1885883a 	add	r2,r3,r2
 800047c:	11000005 	stb	r4,0(r2)
	//Nr = 10, Nb = 4;

	unsigned char state[16];
	unsigned char word_key[16];
	unsigned int word[44];
	for(int i = 0; i < 16; i++)
 8000480:	e0bfb217 	ldw	r2,-312(fp)
 8000484:	10800044 	addi	r2,r2,1
 8000488:	e0bfb215 	stw	r2,-312(fp)
 800048c:	e0bfb217 	ldw	r2,-312(fp)
 8000490:	10800410 	cmplti	r2,r2,16
 8000494:	103fc81e 	bne	r2,zero,80003b8 <__alt_mem_onchip_memory2_0+0xf7fff338>
	{
		state[i] = charsToHex(msg_ascii[2*i], msg_ascii[(2*i)+1]);
		word_key[i] = charsToHex(key_ascii[2*i], key_ascii[(2*i)+1]);
	}

	KeyExpansion(word_key, word, 4);
 8000498:	e0ffc404 	addi	r3,fp,-240
 800049c:	e0bfc004 	addi	r2,fp,-256
 80004a0:	01800104 	movi	r6,4
 80004a4:	180b883a 	mov	r5,r3
 80004a8:	1009883a 	mov	r4,r2
 80004ac:	8000d600 	call	8000d60 <KeyExpansion>

	unsigned int firstChunk[4] = {word[0], word[1], word[2], word[3]};
 80004b0:	e0bfc417 	ldw	r2,-240(fp)
 80004b4:	e0bff015 	stw	r2,-64(fp)
 80004b8:	e0bfc517 	ldw	r2,-236(fp)
 80004bc:	e0bff115 	stw	r2,-60(fp)
 80004c0:	e0bfc617 	ldw	r2,-232(fp)
 80004c4:	e0bff215 	stw	r2,-56(fp)
 80004c8:	e0bfc717 	ldw	r2,-228(fp)
 80004cc:	e0bff315 	stw	r2,-52(fp)
	AddRoundKey(state, firstChunk, 0);
 80004d0:	e0fff004 	addi	r3,fp,-64
 80004d4:	e0bfbc04 	addi	r2,fp,-272
 80004d8:	000d883a 	mov	r6,zero
 80004dc:	180b883a 	mov	r5,r3
 80004e0:	1009883a 	mov	r4,r2
 80004e4:	800106c0 	call	800106c <AddRoundKey>

	//Encryption Round
	for (int round = 1; round <= 9; round++) {
 80004e8:	00800044 	movi	r2,1
 80004ec:	e0bfb315 	stw	r2,-308(fp)
 80004f0:	00003d06 	br	80005e8 <encrypt+0x258>
		 SubBytes(state);
 80004f4:	e0bfbc04 	addi	r2,fp,-272
 80004f8:	1009883a 	mov	r4,r2
 80004fc:	80008b40 	call	80008b4 <SubBytes>
		 ShiftRows(state);
 8000500:	e0bfbc04 	addi	r2,fp,-272
 8000504:	1009883a 	mov	r4,r2
 8000508:	80009540 	call	8000954 <ShiftRows>
		 MixColumns(state);
 800050c:	e0bfbc04 	addi	r2,fp,-272
 8000510:	1009883a 	mov	r4,r2
 8000514:	8000a780 	call	8000a78 <MixColumns>

		 unsigned int chunk[4] = {word[round*4], word[round*4 + 1], word[round*4 + 2], word[round*4+3]};
 8000518:	e0bfb317 	ldw	r2,-308(fp)
 800051c:	1085883a 	add	r2,r2,r2
 8000520:	1085883a 	add	r2,r2,r2
 8000524:	1085883a 	add	r2,r2,r2
 8000528:	1085883a 	add	r2,r2,r2
 800052c:	e0ffb204 	addi	r3,fp,-312
 8000530:	1885883a 	add	r2,r3,r2
 8000534:	10801204 	addi	r2,r2,72
 8000538:	10800017 	ldw	r2,0(r2)
 800053c:	e0bff815 	stw	r2,-32(fp)
 8000540:	e0bfb317 	ldw	r2,-308(fp)
 8000544:	1085883a 	add	r2,r2,r2
 8000548:	1085883a 	add	r2,r2,r2
 800054c:	10800044 	addi	r2,r2,1
 8000550:	1085883a 	add	r2,r2,r2
 8000554:	1085883a 	add	r2,r2,r2
 8000558:	e0ffb204 	addi	r3,fp,-312
 800055c:	1885883a 	add	r2,r3,r2
 8000560:	10801204 	addi	r2,r2,72
 8000564:	10800017 	ldw	r2,0(r2)
 8000568:	e0bff915 	stw	r2,-28(fp)
 800056c:	e0bfb317 	ldw	r2,-308(fp)
 8000570:	1085883a 	add	r2,r2,r2
 8000574:	1085883a 	add	r2,r2,r2
 8000578:	10800084 	addi	r2,r2,2
 800057c:	1085883a 	add	r2,r2,r2
 8000580:	1085883a 	add	r2,r2,r2
 8000584:	e0ffb204 	addi	r3,fp,-312
 8000588:	1885883a 	add	r2,r3,r2
 800058c:	10801204 	addi	r2,r2,72
 8000590:	10800017 	ldw	r2,0(r2)
 8000594:	e0bffa15 	stw	r2,-24(fp)
 8000598:	e0bfb317 	ldw	r2,-308(fp)
 800059c:	1085883a 	add	r2,r2,r2
 80005a0:	1085883a 	add	r2,r2,r2
 80005a4:	108000c4 	addi	r2,r2,3
 80005a8:	1085883a 	add	r2,r2,r2
 80005ac:	1085883a 	add	r2,r2,r2
 80005b0:	e0ffb204 	addi	r3,fp,-312
 80005b4:	1885883a 	add	r2,r3,r2
 80005b8:	10801204 	addi	r2,r2,72
 80005bc:	10800017 	ldw	r2,0(r2)
 80005c0:	e0bffb15 	stw	r2,-20(fp)
		 AddRoundKey(state, chunk, round);
 80005c4:	e0fff804 	addi	r3,fp,-32
 80005c8:	e0bfbc04 	addi	r2,fp,-272
 80005cc:	e1bfb317 	ldw	r6,-308(fp)
 80005d0:	180b883a 	mov	r5,r3
 80005d4:	1009883a 	mov	r4,r2
 80005d8:	800106c0 	call	800106c <AddRoundKey>

	unsigned int firstChunk[4] = {word[0], word[1], word[2], word[3]};
	AddRoundKey(state, firstChunk, 0);

	//Encryption Round
	for (int round = 1; round <= 9; round++) {
 80005dc:	e0bfb317 	ldw	r2,-308(fp)
 80005e0:	10800044 	addi	r2,r2,1
 80005e4:	e0bfb315 	stw	r2,-308(fp)
 80005e8:	e0bfb317 	ldw	r2,-308(fp)
 80005ec:	10800290 	cmplti	r2,r2,10
 80005f0:	103fc01e 	bne	r2,zero,80004f4 <__alt_mem_onchip_memory2_0+0xf7fff474>
		 unsigned int chunk[4] = {word[round*4], word[round*4 + 1], word[round*4 + 2], word[round*4+3]};
		 AddRoundKey(state, chunk, round);
	}

	//Last Round
	SubBytes(state);
 80005f4:	e0bfbc04 	addi	r2,fp,-272
 80005f8:	1009883a 	mov	r4,r2
 80005fc:	80008b40 	call	80008b4 <SubBytes>
	ShiftRows(state);
 8000600:	e0bfbc04 	addi	r2,fp,-272
 8000604:	1009883a 	mov	r4,r2
 8000608:	80009540 	call	8000954 <ShiftRows>
	unsigned int lastChunk[4] = {word[40], word[41], word[42], word[43]};
 800060c:	e0bfec17 	ldw	r2,-80(fp)
 8000610:	e0bff415 	stw	r2,-48(fp)
 8000614:	e0bfed17 	ldw	r2,-76(fp)
 8000618:	e0bff515 	stw	r2,-44(fp)
 800061c:	e0bfee17 	ldw	r2,-72(fp)
 8000620:	e0bff615 	stw	r2,-40(fp)
 8000624:	e0bfef17 	ldw	r2,-68(fp)
 8000628:	e0bff715 	stw	r2,-36(fp)
	AddRoundKey(state, lastChunk, 10);
 800062c:	e0fff404 	addi	r3,fp,-48
 8000630:	e0bfbc04 	addi	r2,fp,-272
 8000634:	01800284 	movi	r6,10
 8000638:	180b883a 	mov	r5,r3
 800063c:	1009883a 	mov	r4,r2
 8000640:	800106c0 	call	800106c <AddRoundKey>

	//Set outputs
	int key0 = word_key[0] << 24 | word_key[1] << 16 | word_key[2] << 8 | word_key[3];
 8000644:	e0bfc003 	ldbu	r2,-256(fp)
 8000648:	10803fcc 	andi	r2,r2,255
 800064c:	1006963a 	slli	r3,r2,24
 8000650:	e0bfc043 	ldbu	r2,-255(fp)
 8000654:	10803fcc 	andi	r2,r2,255
 8000658:	1004943a 	slli	r2,r2,16
 800065c:	1886b03a 	or	r3,r3,r2
 8000660:	e0bfc083 	ldbu	r2,-254(fp)
 8000664:	10803fcc 	andi	r2,r2,255
 8000668:	1004923a 	slli	r2,r2,8
 800066c:	1886b03a 	or	r3,r3,r2
 8000670:	e0bfc0c3 	ldbu	r2,-253(fp)
 8000674:	10803fcc 	andi	r2,r2,255
 8000678:	1884b03a 	or	r2,r3,r2
 800067c:	e0bfb415 	stw	r2,-304(fp)
	int key1 = word_key[4] << 24 | word_key[5] << 16 | word_key[6] << 8 | word_key[7];
 8000680:	e0bfc103 	ldbu	r2,-252(fp)
 8000684:	10803fcc 	andi	r2,r2,255
 8000688:	1006963a 	slli	r3,r2,24
 800068c:	e0bfc143 	ldbu	r2,-251(fp)
 8000690:	10803fcc 	andi	r2,r2,255
 8000694:	1004943a 	slli	r2,r2,16
 8000698:	1886b03a 	or	r3,r3,r2
 800069c:	e0bfc183 	ldbu	r2,-250(fp)
 80006a0:	10803fcc 	andi	r2,r2,255
 80006a4:	1004923a 	slli	r2,r2,8
 80006a8:	1886b03a 	or	r3,r3,r2
 80006ac:	e0bfc1c3 	ldbu	r2,-249(fp)
 80006b0:	10803fcc 	andi	r2,r2,255
 80006b4:	1884b03a 	or	r2,r3,r2
 80006b8:	e0bfb515 	stw	r2,-300(fp)
	int key2 = word_key[8] << 24 | word_key[9] << 16 | word_key[10] << 8 | word_key[11];
 80006bc:	e0bfc203 	ldbu	r2,-248(fp)
 80006c0:	10803fcc 	andi	r2,r2,255
 80006c4:	1006963a 	slli	r3,r2,24
 80006c8:	e0bfc243 	ldbu	r2,-247(fp)
 80006cc:	10803fcc 	andi	r2,r2,255
 80006d0:	1004943a 	slli	r2,r2,16
 80006d4:	1886b03a 	or	r3,r3,r2
 80006d8:	e0bfc283 	ldbu	r2,-246(fp)
 80006dc:	10803fcc 	andi	r2,r2,255
 80006e0:	1004923a 	slli	r2,r2,8
 80006e4:	1886b03a 	or	r3,r3,r2
 80006e8:	e0bfc2c3 	ldbu	r2,-245(fp)
 80006ec:	10803fcc 	andi	r2,r2,255
 80006f0:	1884b03a 	or	r2,r3,r2
 80006f4:	e0bfb615 	stw	r2,-296(fp)
	int key3 = word_key[12] << 24 | word_key[13] << 16 | word_key[14] << 8 | word_key[15];
 80006f8:	e0bfc303 	ldbu	r2,-244(fp)
 80006fc:	10803fcc 	andi	r2,r2,255
 8000700:	1006963a 	slli	r3,r2,24
 8000704:	e0bfc343 	ldbu	r2,-243(fp)
 8000708:	10803fcc 	andi	r2,r2,255
 800070c:	1004943a 	slli	r2,r2,16
 8000710:	1886b03a 	or	r3,r3,r2
 8000714:	e0bfc383 	ldbu	r2,-242(fp)
 8000718:	10803fcc 	andi	r2,r2,255
 800071c:	1004923a 	slli	r2,r2,8
 8000720:	1886b03a 	or	r3,r3,r2
 8000724:	e0bfc3c3 	ldbu	r2,-241(fp)
 8000728:	10803fcc 	andi	r2,r2,255
 800072c:	1884b03a 	or	r2,r3,r2
 8000730:	e0bfb715 	stw	r2,-292(fp)
	key[0] = key0;
 8000734:	e0ffb417 	ldw	r3,-304(fp)
 8000738:	e0bfff17 	ldw	r2,-4(fp)
 800073c:	10c00015 	stw	r3,0(r2)
	key[1] = key1;
 8000740:	e0bfff17 	ldw	r2,-4(fp)
 8000744:	10800104 	addi	r2,r2,4
 8000748:	e0ffb517 	ldw	r3,-300(fp)
 800074c:	10c00015 	stw	r3,0(r2)
	key[2] = key2;
 8000750:	e0bfff17 	ldw	r2,-4(fp)
 8000754:	10800204 	addi	r2,r2,8
 8000758:	e0ffb617 	ldw	r3,-296(fp)
 800075c:	10c00015 	stw	r3,0(r2)
	key[3] = key3;
 8000760:	e0bfff17 	ldw	r2,-4(fp)
 8000764:	10800304 	addi	r2,r2,12
 8000768:	e0ffb717 	ldw	r3,-292(fp)
 800076c:	10c00015 	stw	r3,0(r2)

	int word0 = state[0] << 24 | state[1] << 16 | state[2] << 8 | state[3];
 8000770:	e0bfbc03 	ldbu	r2,-272(fp)
 8000774:	10803fcc 	andi	r2,r2,255
 8000778:	1006963a 	slli	r3,r2,24
 800077c:	e0bfbc43 	ldbu	r2,-271(fp)
 8000780:	10803fcc 	andi	r2,r2,255
 8000784:	1004943a 	slli	r2,r2,16
 8000788:	1886b03a 	or	r3,r3,r2
 800078c:	e0bfbc83 	ldbu	r2,-270(fp)
 8000790:	10803fcc 	andi	r2,r2,255
 8000794:	1004923a 	slli	r2,r2,8
 8000798:	1886b03a 	or	r3,r3,r2
 800079c:	e0bfbcc3 	ldbu	r2,-269(fp)
 80007a0:	10803fcc 	andi	r2,r2,255
 80007a4:	1884b03a 	or	r2,r3,r2
 80007a8:	e0bfb815 	stw	r2,-288(fp)
	int word1 = state[4] << 24 | state[5] << 16 | state[6] << 8 | state[7];
 80007ac:	e0bfbd03 	ldbu	r2,-268(fp)
 80007b0:	10803fcc 	andi	r2,r2,255
 80007b4:	1006963a 	slli	r3,r2,24
 80007b8:	e0bfbd43 	ldbu	r2,-267(fp)
 80007bc:	10803fcc 	andi	r2,r2,255
 80007c0:	1004943a 	slli	r2,r2,16
 80007c4:	1886b03a 	or	r3,r3,r2
 80007c8:	e0bfbd83 	ldbu	r2,-266(fp)
 80007cc:	10803fcc 	andi	r2,r2,255
 80007d0:	1004923a 	slli	r2,r2,8
 80007d4:	1886b03a 	or	r3,r3,r2
 80007d8:	e0bfbdc3 	ldbu	r2,-265(fp)
 80007dc:	10803fcc 	andi	r2,r2,255
 80007e0:	1884b03a 	or	r2,r3,r2
 80007e4:	e0bfb915 	stw	r2,-284(fp)
	int word2 = state[8] << 24 | state[9] << 16 | state[10] << 8 | state[11];
 80007e8:	e0bfbe03 	ldbu	r2,-264(fp)
 80007ec:	10803fcc 	andi	r2,r2,255
 80007f0:	1006963a 	slli	r3,r2,24
 80007f4:	e0bfbe43 	ldbu	r2,-263(fp)
 80007f8:	10803fcc 	andi	r2,r2,255
 80007fc:	1004943a 	slli	r2,r2,16
 8000800:	1886b03a 	or	r3,r3,r2
 8000804:	e0bfbe83 	ldbu	r2,-262(fp)
 8000808:	10803fcc 	andi	r2,r2,255
 800080c:	1004923a 	slli	r2,r2,8
 8000810:	1886b03a 	or	r3,r3,r2
 8000814:	e0bfbec3 	ldbu	r2,-261(fp)
 8000818:	10803fcc 	andi	r2,r2,255
 800081c:	1884b03a 	or	r2,r3,r2
 8000820:	e0bfba15 	stw	r2,-280(fp)
	int word3 = state[12] << 24 | state[13] << 16 | state[14] << 8 | state[15];
 8000824:	e0bfbf03 	ldbu	r2,-260(fp)
 8000828:	10803fcc 	andi	r2,r2,255
 800082c:	1006963a 	slli	r3,r2,24
 8000830:	e0bfbf43 	ldbu	r2,-259(fp)
 8000834:	10803fcc 	andi	r2,r2,255
 8000838:	1004943a 	slli	r2,r2,16
 800083c:	1886b03a 	or	r3,r3,r2
 8000840:	e0bfbf83 	ldbu	r2,-258(fp)
 8000844:	10803fcc 	andi	r2,r2,255
 8000848:	1004923a 	slli	r2,r2,8
 800084c:	1886b03a 	or	r3,r3,r2
 8000850:	e0bfbfc3 	ldbu	r2,-257(fp)
 8000854:	10803fcc 	andi	r2,r2,255
 8000858:	1884b03a 	or	r2,r3,r2
 800085c:	e0bfbb15 	stw	r2,-276(fp)
	msg_enc[0] = word0;
 8000860:	e0ffb817 	ldw	r3,-288(fp)
 8000864:	e0bffe17 	ldw	r2,-8(fp)
 8000868:	10c00015 	stw	r3,0(r2)
	msg_enc[1] = word1;
 800086c:	e0bffe17 	ldw	r2,-8(fp)
 8000870:	10800104 	addi	r2,r2,4
 8000874:	e0ffb917 	ldw	r3,-284(fp)
 8000878:	10c00015 	stw	r3,0(r2)
	msg_enc[2] = word2;
 800087c:	e0bffe17 	ldw	r2,-8(fp)
 8000880:	10800204 	addi	r2,r2,8
 8000884:	e0ffba17 	ldw	r3,-280(fp)
 8000888:	10c00015 	stw	r3,0(r2)
	msg_enc[3] = word3;
 800088c:	e0bffe17 	ldw	r2,-8(fp)
 8000890:	10800304 	addi	r2,r2,12
 8000894:	e0ffbb17 	ldw	r3,-276(fp)
 8000898:	10c00015 	stw	r3,0(r2)
}
 800089c:	0001883a 	nop
 80008a0:	e037883a 	mov	sp,fp
 80008a4:	dfc00117 	ldw	ra,4(sp)
 80008a8:	df000017 	ldw	fp,0(sp)
 80008ac:	dec00204 	addi	sp,sp,8
 80008b0:	f800283a 	ret

080008b4 <SubBytes>:
void SubBytes(unsigned char * state){
 80008b4:	defffd04 	addi	sp,sp,-12
 80008b8:	df000215 	stw	fp,8(sp)
 80008bc:	df000204 	addi	fp,sp,8
 80008c0:	e13fff15 	stw	r4,-4(fp)
//one byte is 8 bits
	for (int x = 0; x < 16; x++){
 80008c4:	e03ffe15 	stw	zero,-8(fp)
 80008c8:	00001a06 	br	8000934 <SubBytes+0x80>
			state[x] = aes_sbox[(state[x] >> 4)*16 + (state[x] & 0x0F)];
 80008cc:	e0bffe17 	ldw	r2,-8(fp)
 80008d0:	e0ffff17 	ldw	r3,-4(fp)
 80008d4:	1887883a 	add	r3,r3,r2
 80008d8:	e0bffe17 	ldw	r2,-8(fp)
 80008dc:	e13fff17 	ldw	r4,-4(fp)
 80008e0:	2085883a 	add	r2,r4,r2
 80008e4:	10800003 	ldbu	r2,0(r2)
 80008e8:	10803fcc 	andi	r2,r2,255
 80008ec:	1004d13a 	srli	r2,r2,4
 80008f0:	10803fcc 	andi	r2,r2,255
 80008f4:	1008913a 	slli	r4,r2,4
 80008f8:	e0bffe17 	ldw	r2,-8(fp)
 80008fc:	e17fff17 	ldw	r5,-4(fp)
 8000900:	2885883a 	add	r2,r5,r2
 8000904:	10800003 	ldbu	r2,0(r2)
 8000908:	10803fcc 	andi	r2,r2,255
 800090c:	108003cc 	andi	r2,r2,15
 8000910:	2089883a 	add	r4,r4,r2
 8000914:	008200b4 	movhi	r2,2050
 8000918:	10a8ad04 	addi	r2,r2,-23884
 800091c:	1105883a 	add	r2,r2,r4
 8000920:	10800003 	ldbu	r2,0(r2)
 8000924:	18800005 	stb	r2,0(r3)
	msg_enc[2] = word2;
	msg_enc[3] = word3;
}
void SubBytes(unsigned char * state){
//one byte is 8 bits
	for (int x = 0; x < 16; x++){
 8000928:	e0bffe17 	ldw	r2,-8(fp)
 800092c:	10800044 	addi	r2,r2,1
 8000930:	e0bffe15 	stw	r2,-8(fp)
 8000934:	e0bffe17 	ldw	r2,-8(fp)
 8000938:	10800410 	cmplti	r2,r2,16
 800093c:	103fe31e 	bne	r2,zero,80008cc <__alt_mem_onchip_memory2_0+0xf7fff84c>
			state[x] = aes_sbox[(state[x] >> 4)*16 + (state[x] & 0x0F)];
	}
}
 8000940:	0001883a 	nop
 8000944:	e037883a 	mov	sp,fp
 8000948:	df000017 	ldw	fp,0(sp)
 800094c:	dec00104 	addi	sp,sp,4
 8000950:	f800283a 	ret

08000954 <ShiftRows>:
void ShiftRows(unsigned char * state){
 8000954:	defff904 	addi	sp,sp,-28
 8000958:	df000615 	stw	fp,24(sp)
 800095c:	df000604 	addi	fp,sp,24
 8000960:	e13fff15 	stw	r4,-4(fp)
//row n is left-circularly shifted by n-1 Bytes

unsigned char state1[16];
for (int i = 0; i < 16; i++)
 8000964:	e03ffa15 	stw	zero,-24(fp)
 8000968:	00000b06 	br	8000998 <ShiftRows+0x44>
	state1[i] = state[i];
 800096c:	e0bffa17 	ldw	r2,-24(fp)
 8000970:	e0ffff17 	ldw	r3,-4(fp)
 8000974:	1885883a 	add	r2,r3,r2
 8000978:	10c00003 	ldbu	r3,0(r2)
 800097c:	e13ffb04 	addi	r4,fp,-20
 8000980:	e0bffa17 	ldw	r2,-24(fp)
 8000984:	2085883a 	add	r2,r4,r2
 8000988:	10c00005 	stb	r3,0(r2)
}
void ShiftRows(unsigned char * state){
//row n is left-circularly shifted by n-1 Bytes

unsigned char state1[16];
for (int i = 0; i < 16; i++)
 800098c:	e0bffa17 	ldw	r2,-24(fp)
 8000990:	10800044 	addi	r2,r2,1
 8000994:	e0bffa15 	stw	r2,-24(fp)
 8000998:	e0bffa17 	ldw	r2,-24(fp)
 800099c:	10800410 	cmplti	r2,r2,16
 80009a0:	103ff21e 	bne	r2,zero,800096c <__alt_mem_onchip_memory2_0+0xf7fff8ec>
	state1[i] = state[i];

state[1] = state1[5];
 80009a4:	e0bfff17 	ldw	r2,-4(fp)
 80009a8:	10800044 	addi	r2,r2,1
 80009ac:	e0fffc43 	ldbu	r3,-15(fp)
 80009b0:	10c00005 	stb	r3,0(r2)
state[5] = state1[9];
 80009b4:	e0bfff17 	ldw	r2,-4(fp)
 80009b8:	10800144 	addi	r2,r2,5
 80009bc:	e0fffd43 	ldbu	r3,-11(fp)
 80009c0:	10c00005 	stb	r3,0(r2)
state[9] = state1[13];
 80009c4:	e0bfff17 	ldw	r2,-4(fp)
 80009c8:	10800244 	addi	r2,r2,9
 80009cc:	e0fffe43 	ldbu	r3,-7(fp)
 80009d0:	10c00005 	stb	r3,0(r2)
state[13] = state1[1];
 80009d4:	e0bfff17 	ldw	r2,-4(fp)
 80009d8:	10800344 	addi	r2,r2,13
 80009dc:	e0fffb43 	ldbu	r3,-19(fp)
 80009e0:	10c00005 	stb	r3,0(r2)
state[2] = state1[10];
 80009e4:	e0bfff17 	ldw	r2,-4(fp)
 80009e8:	10800084 	addi	r2,r2,2
 80009ec:	e0fffd83 	ldbu	r3,-10(fp)
 80009f0:	10c00005 	stb	r3,0(r2)
state[6] = state1[14];
 80009f4:	e0bfff17 	ldw	r2,-4(fp)
 80009f8:	10800184 	addi	r2,r2,6
 80009fc:	e0fffe83 	ldbu	r3,-6(fp)
 8000a00:	10c00005 	stb	r3,0(r2)
state[10] = state1[2];
 8000a04:	e0bfff17 	ldw	r2,-4(fp)
 8000a08:	10800284 	addi	r2,r2,10
 8000a0c:	e0fffb83 	ldbu	r3,-18(fp)
 8000a10:	10c00005 	stb	r3,0(r2)
state[14] = state1[6];
 8000a14:	e0bfff17 	ldw	r2,-4(fp)
 8000a18:	10800384 	addi	r2,r2,14
 8000a1c:	e0fffc83 	ldbu	r3,-14(fp)
 8000a20:	10c00005 	stb	r3,0(r2)
state[3] = state1[15];
 8000a24:	e0bfff17 	ldw	r2,-4(fp)
 8000a28:	108000c4 	addi	r2,r2,3
 8000a2c:	e0fffec3 	ldbu	r3,-5(fp)
 8000a30:	10c00005 	stb	r3,0(r2)
state[7] = state1[3];
 8000a34:	e0bfff17 	ldw	r2,-4(fp)
 8000a38:	108001c4 	addi	r2,r2,7
 8000a3c:	e0fffbc3 	ldbu	r3,-17(fp)
 8000a40:	10c00005 	stb	r3,0(r2)
state[11] = state1[7];
 8000a44:	e0bfff17 	ldw	r2,-4(fp)
 8000a48:	108002c4 	addi	r2,r2,11
 8000a4c:	e0fffcc3 	ldbu	r3,-13(fp)
 8000a50:	10c00005 	stb	r3,0(r2)
state[15] = state1[11];
 8000a54:	e0bfff17 	ldw	r2,-4(fp)
 8000a58:	108003c4 	addi	r2,r2,15
 8000a5c:	e0fffdc3 	ldbu	r3,-9(fp)
 8000a60:	10c00005 	stb	r3,0(r2)

}
 8000a64:	0001883a 	nop
 8000a68:	e037883a 	mov	sp,fp
 8000a6c:	df000017 	ldw	fp,0(sp)
 8000a70:	dec00104 	addi	sp,sp,4
 8000a74:	f800283a 	ret

08000a78 <MixColumns>:
void MixColumns(unsigned char * state){
 8000a78:	defff504 	addi	sp,sp,-44
 8000a7c:	dfc00a15 	stw	ra,40(sp)
 8000a80:	df000915 	stw	fp,36(sp)
 8000a84:	dc800815 	stw	r18,32(sp)
 8000a88:	dc400715 	stw	r17,28(sp)
 8000a8c:	dc000615 	stw	r16,24(sp)
 8000a90:	df000904 	addi	fp,sp,36
 8000a94:	e13ffc15 	stw	r4,-16(fp)
	//using the look-up table and equations from slide 12

	unsigned int a_0, a_1, a_2, a_3;
	for(int i = 0; i < 4; i++)
 8000a98:	e03ff715 	stw	zero,-36(fp)
 8000a9c:	0000a406 	br	8000d30 <MixColumns+0x2b8>
	{
		a_0 = state[4*i];
 8000aa0:	e0bff717 	ldw	r2,-36(fp)
 8000aa4:	1085883a 	add	r2,r2,r2
 8000aa8:	1085883a 	add	r2,r2,r2
 8000aac:	1007883a 	mov	r3,r2
 8000ab0:	e0bffc17 	ldw	r2,-16(fp)
 8000ab4:	10c5883a 	add	r2,r2,r3
 8000ab8:	10800003 	ldbu	r2,0(r2)
 8000abc:	10803fcc 	andi	r2,r2,255
 8000ac0:	e0bff815 	stw	r2,-32(fp)
	    a_1 = state[4*i + 1];
 8000ac4:	e0bff717 	ldw	r2,-36(fp)
 8000ac8:	1085883a 	add	r2,r2,r2
 8000acc:	1085883a 	add	r2,r2,r2
 8000ad0:	10800044 	addi	r2,r2,1
 8000ad4:	e0fffc17 	ldw	r3,-16(fp)
 8000ad8:	1885883a 	add	r2,r3,r2
 8000adc:	10800003 	ldbu	r2,0(r2)
 8000ae0:	10803fcc 	andi	r2,r2,255
 8000ae4:	e0bff915 	stw	r2,-28(fp)
		a_2 = state[4*i + 2];
 8000ae8:	e0bff717 	ldw	r2,-36(fp)
 8000aec:	1085883a 	add	r2,r2,r2
 8000af0:	1085883a 	add	r2,r2,r2
 8000af4:	10800084 	addi	r2,r2,2
 8000af8:	e0fffc17 	ldw	r3,-16(fp)
 8000afc:	1885883a 	add	r2,r3,r2
 8000b00:	10800003 	ldbu	r2,0(r2)
 8000b04:	10803fcc 	andi	r2,r2,255
 8000b08:	e0bffa15 	stw	r2,-24(fp)
		a_3 = state[4*i + 3];
 8000b0c:	e0bff717 	ldw	r2,-36(fp)
 8000b10:	1085883a 	add	r2,r2,r2
 8000b14:	1085883a 	add	r2,r2,r2
 8000b18:	108000c4 	addi	r2,r2,3
 8000b1c:	e0fffc17 	ldw	r3,-16(fp)
 8000b20:	1885883a 	add	r2,r3,r2
 8000b24:	10800003 	ldbu	r2,0(r2)
 8000b28:	10803fcc 	andi	r2,r2,255
 8000b2c:	e0bffb15 	stw	r2,-20(fp)

		state[4*i] = gf_mul[a_0][0] ^ gf_mul[a_1][1] ^ (a_2) ^ (a_3);
 8000b30:	e0bff717 	ldw	r2,-36(fp)
 8000b34:	1085883a 	add	r2,r2,r2
 8000b38:	1085883a 	add	r2,r2,r2
 8000b3c:	1007883a 	mov	r3,r2
 8000b40:	e0bffc17 	ldw	r2,-16(fp)
 8000b44:	10e3883a 	add	r17,r2,r3
 8000b48:	040200b4 	movhi	r16,2050
 8000b4c:	842b3a04 	addi	r16,r16,-21272
 8000b50:	e0bff817 	ldw	r2,-32(fp)
 8000b54:	01400184 	movi	r5,6
 8000b58:	1009883a 	mov	r4,r2
 8000b5c:	80019040 	call	8001904 <__mulsi3>
 8000b60:	8085883a 	add	r2,r16,r2
 8000b64:	14800003 	ldbu	r18,0(r2)
 8000b68:	040200b4 	movhi	r16,2050
 8000b6c:	842b3a04 	addi	r16,r16,-21272
 8000b70:	e0bff917 	ldw	r2,-28(fp)
 8000b74:	01400184 	movi	r5,6
 8000b78:	1009883a 	mov	r4,r2
 8000b7c:	80019040 	call	8001904 <__mulsi3>
 8000b80:	8085883a 	add	r2,r16,r2
 8000b84:	10800044 	addi	r2,r2,1
 8000b88:	10800003 	ldbu	r2,0(r2)
 8000b8c:	9084f03a 	xor	r2,r18,r2
 8000b90:	1007883a 	mov	r3,r2
 8000b94:	e0bffa17 	ldw	r2,-24(fp)
 8000b98:	1884f03a 	xor	r2,r3,r2
 8000b9c:	1007883a 	mov	r3,r2
 8000ba0:	e0bffb17 	ldw	r2,-20(fp)
 8000ba4:	1884f03a 	xor	r2,r3,r2
 8000ba8:	88800005 	stb	r2,0(r17)
		state[(4*i)+1] = (a_0) ^ gf_mul[a_1][0] ^ gf_mul[a_2][1] ^ (a_3);
 8000bac:	e0bff717 	ldw	r2,-36(fp)
 8000bb0:	1085883a 	add	r2,r2,r2
 8000bb4:	1085883a 	add	r2,r2,r2
 8000bb8:	10800044 	addi	r2,r2,1
 8000bbc:	e0fffc17 	ldw	r3,-16(fp)
 8000bc0:	18a3883a 	add	r17,r3,r2
 8000bc4:	040200b4 	movhi	r16,2050
 8000bc8:	842b3a04 	addi	r16,r16,-21272
 8000bcc:	e0bff917 	ldw	r2,-28(fp)
 8000bd0:	01400184 	movi	r5,6
 8000bd4:	1009883a 	mov	r4,r2
 8000bd8:	80019040 	call	8001904 <__mulsi3>
 8000bdc:	8085883a 	add	r2,r16,r2
 8000be0:	10800003 	ldbu	r2,0(r2)
 8000be4:	e0fff817 	ldw	r3,-32(fp)
 8000be8:	10c4f03a 	xor	r2,r2,r3
 8000bec:	1025883a 	mov	r18,r2
 8000bf0:	040200b4 	movhi	r16,2050
 8000bf4:	842b3a04 	addi	r16,r16,-21272
 8000bf8:	e0bffa17 	ldw	r2,-24(fp)
 8000bfc:	01400184 	movi	r5,6
 8000c00:	1009883a 	mov	r4,r2
 8000c04:	80019040 	call	8001904 <__mulsi3>
 8000c08:	8085883a 	add	r2,r16,r2
 8000c0c:	10800044 	addi	r2,r2,1
 8000c10:	10800003 	ldbu	r2,0(r2)
 8000c14:	9084f03a 	xor	r2,r18,r2
 8000c18:	1007883a 	mov	r3,r2
 8000c1c:	e0bffb17 	ldw	r2,-20(fp)
 8000c20:	1884f03a 	xor	r2,r3,r2
 8000c24:	88800005 	stb	r2,0(r17)
		state[(4*i)+2] = (a_0) ^ (a_1) ^ gf_mul[a_2][0] ^ gf_mul[a_3][1];
 8000c28:	e0bff717 	ldw	r2,-36(fp)
 8000c2c:	1085883a 	add	r2,r2,r2
 8000c30:	1085883a 	add	r2,r2,r2
 8000c34:	10800084 	addi	r2,r2,2
 8000c38:	e0fffc17 	ldw	r3,-16(fp)
 8000c3c:	18a3883a 	add	r17,r3,r2
 8000c40:	e0bff817 	ldw	r2,-32(fp)
 8000c44:	1007883a 	mov	r3,r2
 8000c48:	e0bff917 	ldw	r2,-28(fp)
 8000c4c:	1884f03a 	xor	r2,r3,r2
 8000c50:	1025883a 	mov	r18,r2
 8000c54:	040200b4 	movhi	r16,2050
 8000c58:	842b3a04 	addi	r16,r16,-21272
 8000c5c:	e0bffa17 	ldw	r2,-24(fp)
 8000c60:	01400184 	movi	r5,6
 8000c64:	1009883a 	mov	r4,r2
 8000c68:	80019040 	call	8001904 <__mulsi3>
 8000c6c:	8085883a 	add	r2,r16,r2
 8000c70:	10800003 	ldbu	r2,0(r2)
 8000c74:	9084f03a 	xor	r2,r18,r2
 8000c78:	1025883a 	mov	r18,r2
 8000c7c:	040200b4 	movhi	r16,2050
 8000c80:	842b3a04 	addi	r16,r16,-21272
 8000c84:	e0bffb17 	ldw	r2,-20(fp)
 8000c88:	01400184 	movi	r5,6
 8000c8c:	1009883a 	mov	r4,r2
 8000c90:	80019040 	call	8001904 <__mulsi3>
 8000c94:	8085883a 	add	r2,r16,r2
 8000c98:	10800044 	addi	r2,r2,1
 8000c9c:	10800003 	ldbu	r2,0(r2)
 8000ca0:	9084f03a 	xor	r2,r18,r2
 8000ca4:	88800005 	stb	r2,0(r17)
		state[(4*i)+3] = gf_mul[a_0][1] ^ (a_1) ^ (a_2) ^ gf_mul[a_3][0];
 8000ca8:	e0bff717 	ldw	r2,-36(fp)
 8000cac:	1085883a 	add	r2,r2,r2
 8000cb0:	1085883a 	add	r2,r2,r2
 8000cb4:	108000c4 	addi	r2,r2,3
 8000cb8:	e0fffc17 	ldw	r3,-16(fp)
 8000cbc:	18a3883a 	add	r17,r3,r2
 8000cc0:	040200b4 	movhi	r16,2050
 8000cc4:	842b3a04 	addi	r16,r16,-21272
 8000cc8:	e0bff817 	ldw	r2,-32(fp)
 8000ccc:	01400184 	movi	r5,6
 8000cd0:	1009883a 	mov	r4,r2
 8000cd4:	80019040 	call	8001904 <__mulsi3>
 8000cd8:	8085883a 	add	r2,r16,r2
 8000cdc:	10800044 	addi	r2,r2,1
 8000ce0:	10800003 	ldbu	r2,0(r2)
 8000ce4:	e0fff917 	ldw	r3,-28(fp)
 8000ce8:	10c4f03a 	xor	r2,r2,r3
 8000cec:	1007883a 	mov	r3,r2
 8000cf0:	e0bffa17 	ldw	r2,-24(fp)
 8000cf4:	1884f03a 	xor	r2,r3,r2
 8000cf8:	1025883a 	mov	r18,r2
 8000cfc:	040200b4 	movhi	r16,2050
 8000d00:	842b3a04 	addi	r16,r16,-21272
 8000d04:	e0bffb17 	ldw	r2,-20(fp)
 8000d08:	01400184 	movi	r5,6
 8000d0c:	1009883a 	mov	r4,r2
 8000d10:	80019040 	call	8001904 <__mulsi3>
 8000d14:	8085883a 	add	r2,r16,r2
 8000d18:	10800003 	ldbu	r2,0(r2)
 8000d1c:	9084f03a 	xor	r2,r18,r2
 8000d20:	88800005 	stb	r2,0(r17)
}
void MixColumns(unsigned char * state){
	//using the look-up table and equations from slide 12

	unsigned int a_0, a_1, a_2, a_3;
	for(int i = 0; i < 4; i++)
 8000d24:	e0bff717 	ldw	r2,-36(fp)
 8000d28:	10800044 	addi	r2,r2,1
 8000d2c:	e0bff715 	stw	r2,-36(fp)
 8000d30:	e0bff717 	ldw	r2,-36(fp)
 8000d34:	10800110 	cmplti	r2,r2,4
 8000d38:	103f591e 	bne	r2,zero,8000aa0 <__alt_mem_onchip_memory2_0+0xf7fffa20>
		state[(4*i)+1] = (a_0) ^ gf_mul[a_1][0] ^ gf_mul[a_2][1] ^ (a_3);
		state[(4*i)+2] = (a_0) ^ (a_1) ^ gf_mul[a_2][0] ^ gf_mul[a_3][1];
		state[(4*i)+3] = gf_mul[a_0][1] ^ (a_1) ^ (a_2) ^ gf_mul[a_3][0];
	}

}
 8000d3c:	0001883a 	nop
 8000d40:	e6fffd04 	addi	sp,fp,-12
 8000d44:	dfc00417 	ldw	ra,16(sp)
 8000d48:	df000317 	ldw	fp,12(sp)
 8000d4c:	dc800217 	ldw	r18,8(sp)
 8000d50:	dc400117 	ldw	r17,4(sp)
 8000d54:	dc000017 	ldw	r16,0(sp)
 8000d58:	dec00504 	addi	sp,sp,20
 8000d5c:	f800283a 	ret

08000d60 <KeyExpansion>:
void KeyExpansion(unsigned char * key, unsigned int * w, int Nk){
 8000d60:	defff804 	addi	sp,sp,-32
 8000d64:	dfc00715 	stw	ra,28(sp)
 8000d68:	df000615 	stw	fp,24(sp)
 8000d6c:	dc000515 	stw	r16,20(sp)
 8000d70:	df000604 	addi	fp,sp,24
 8000d74:	e13ffc15 	stw	r4,-16(fp)
 8000d78:	e17ffd15 	stw	r5,-12(fp)
 8000d7c:	e1bffe15 	stw	r6,-8(fp)
//produces the round keys
	int i = 0;
 8000d80:	e03ffa15 	stw	zero,-24(fp)
	while (i < Nk){
 8000d84:	00003006 	br	8000e48 <KeyExpansion+0xe8>
		//bitshifting to combine in to 32 bits
		w[i] = (key[4*i] << 24) | (key[4*i+1] << 16) | (key[4*i+2] << 8) | key[4*i+3];
 8000d88:	e0bffa17 	ldw	r2,-24(fp)
 8000d8c:	1085883a 	add	r2,r2,r2
 8000d90:	1085883a 	add	r2,r2,r2
 8000d94:	1007883a 	mov	r3,r2
 8000d98:	e0bffd17 	ldw	r2,-12(fp)
 8000d9c:	10c7883a 	add	r3,r2,r3
 8000da0:	e0bffa17 	ldw	r2,-24(fp)
 8000da4:	1085883a 	add	r2,r2,r2
 8000da8:	1085883a 	add	r2,r2,r2
 8000dac:	1009883a 	mov	r4,r2
 8000db0:	e0bffc17 	ldw	r2,-16(fp)
 8000db4:	1105883a 	add	r2,r2,r4
 8000db8:	10800003 	ldbu	r2,0(r2)
 8000dbc:	10803fcc 	andi	r2,r2,255
 8000dc0:	1008963a 	slli	r4,r2,24
 8000dc4:	e0bffa17 	ldw	r2,-24(fp)
 8000dc8:	1085883a 	add	r2,r2,r2
 8000dcc:	1085883a 	add	r2,r2,r2
 8000dd0:	10800044 	addi	r2,r2,1
 8000dd4:	e17ffc17 	ldw	r5,-16(fp)
 8000dd8:	2885883a 	add	r2,r5,r2
 8000ddc:	10800003 	ldbu	r2,0(r2)
 8000de0:	10803fcc 	andi	r2,r2,255
 8000de4:	1004943a 	slli	r2,r2,16
 8000de8:	2088b03a 	or	r4,r4,r2
 8000dec:	e0bffa17 	ldw	r2,-24(fp)
 8000df0:	1085883a 	add	r2,r2,r2
 8000df4:	1085883a 	add	r2,r2,r2
 8000df8:	10800084 	addi	r2,r2,2
 8000dfc:	e17ffc17 	ldw	r5,-16(fp)
 8000e00:	2885883a 	add	r2,r5,r2
 8000e04:	10800003 	ldbu	r2,0(r2)
 8000e08:	10803fcc 	andi	r2,r2,255
 8000e0c:	1004923a 	slli	r2,r2,8
 8000e10:	2088b03a 	or	r4,r4,r2
 8000e14:	e0bffa17 	ldw	r2,-24(fp)
 8000e18:	1085883a 	add	r2,r2,r2
 8000e1c:	1085883a 	add	r2,r2,r2
 8000e20:	108000c4 	addi	r2,r2,3
 8000e24:	e17ffc17 	ldw	r5,-16(fp)
 8000e28:	2885883a 	add	r2,r5,r2
 8000e2c:	10800003 	ldbu	r2,0(r2)
 8000e30:	10803fcc 	andi	r2,r2,255
 8000e34:	2084b03a 	or	r2,r4,r2
 8000e38:	18800015 	stw	r2,0(r3)
		i++;
 8000e3c:	e0bffa17 	ldw	r2,-24(fp)
 8000e40:	10800044 	addi	r2,r2,1
 8000e44:	e0bffa15 	stw	r2,-24(fp)

}
void KeyExpansion(unsigned char * key, unsigned int * w, int Nk){
//produces the round keys
	int i = 0;
	while (i < Nk){
 8000e48:	e0fffa17 	ldw	r3,-24(fp)
 8000e4c:	e0bffe17 	ldw	r2,-8(fp)
 8000e50:	18bfcd16 	blt	r3,r2,8000d88 <__alt_mem_onchip_memory2_0+0xf7fffd08>
		//bitshifting to combine in to 32 bits
		w[i] = (key[4*i] << 24) | (key[4*i+1] << 16) | (key[4*i+2] << 8) | key[4*i+3];
		i++;
	}

	i = Nk;
 8000e54:	e0bffe17 	ldw	r2,-8(fp)
 8000e58:	e0bffa15 	stw	r2,-24(fp)

	unsigned int temp;
	while (i < 44){
 8000e5c:	00003606 	br	8000f38 <KeyExpansion+0x1d8>
		temp = w[i-1];
 8000e60:	e0fffa17 	ldw	r3,-24(fp)
 8000e64:	00900034 	movhi	r2,16384
 8000e68:	10bfffc4 	addi	r2,r2,-1
 8000e6c:	1885883a 	add	r2,r3,r2
 8000e70:	1085883a 	add	r2,r2,r2
 8000e74:	1085883a 	add	r2,r2,r2
 8000e78:	1007883a 	mov	r3,r2
 8000e7c:	e0bffd17 	ldw	r2,-12(fp)
 8000e80:	10c5883a 	add	r2,r2,r3
 8000e84:	10800017 	ldw	r2,0(r2)
 8000e88:	e0bffb15 	stw	r2,-20(fp)

		if (i % Nk == 0)
 8000e8c:	e0bffa17 	ldw	r2,-24(fp)
 8000e90:	e17ffe17 	ldw	r5,-8(fp)
 8000e94:	1009883a 	mov	r4,r2
 8000e98:	80017d40 	call	80017d4 <__modsi3>
 8000e9c:	1000111e 	bne	r2,zero,8000ee4 <KeyExpansion+0x184>
			temp = SubWord(RotWord(temp)) ^ Rcon[i/Nk];
 8000ea0:	e13ffb17 	ldw	r4,-20(fp)
 8000ea4:	8000f600 	call	8000f60 <RotWord>
 8000ea8:	1009883a 	mov	r4,r2
 8000eac:	8000f880 	call	8000f88 <SubWord>
 8000eb0:	1021883a 	mov	r16,r2
 8000eb4:	e17ffe17 	ldw	r5,-8(fp)
 8000eb8:	e13ffa17 	ldw	r4,-24(fp)
 8000ebc:	80017500 	call	8001750 <__divsi3>
 8000ec0:	1007883a 	mov	r3,r2
 8000ec4:	008200b4 	movhi	r2,2050
 8000ec8:	10acba04 	addi	r2,r2,-19736
 8000ecc:	18c7883a 	add	r3,r3,r3
 8000ed0:	18c7883a 	add	r3,r3,r3
 8000ed4:	10c5883a 	add	r2,r2,r3
 8000ed8:	10800017 	ldw	r2,0(r2)
 8000edc:	8084f03a 	xor	r2,r16,r2
 8000ee0:	e0bffb15 	stw	r2,-20(fp)

		w[i] = w[i-Nk] ^ temp;
 8000ee4:	e0bffa17 	ldw	r2,-24(fp)
 8000ee8:	1085883a 	add	r2,r2,r2
 8000eec:	1085883a 	add	r2,r2,r2
 8000ef0:	1007883a 	mov	r3,r2
 8000ef4:	e0bffd17 	ldw	r2,-12(fp)
 8000ef8:	10c7883a 	add	r3,r2,r3
 8000efc:	e13ffa17 	ldw	r4,-24(fp)
 8000f00:	e0bffe17 	ldw	r2,-8(fp)
 8000f04:	2085c83a 	sub	r2,r4,r2
 8000f08:	1085883a 	add	r2,r2,r2
 8000f0c:	1085883a 	add	r2,r2,r2
 8000f10:	1009883a 	mov	r4,r2
 8000f14:	e0bffd17 	ldw	r2,-12(fp)
 8000f18:	1105883a 	add	r2,r2,r4
 8000f1c:	11000017 	ldw	r4,0(r2)
 8000f20:	e0bffb17 	ldw	r2,-20(fp)
 8000f24:	2084f03a 	xor	r2,r4,r2
 8000f28:	18800015 	stw	r2,0(r3)
		i++;
 8000f2c:	e0bffa17 	ldw	r2,-24(fp)
 8000f30:	10800044 	addi	r2,r2,1
 8000f34:	e0bffa15 	stw	r2,-24(fp)
	}

	i = Nk;

	unsigned int temp;
	while (i < 44){
 8000f38:	e0bffa17 	ldw	r2,-24(fp)
 8000f3c:	10800b10 	cmplti	r2,r2,44
 8000f40:	103fc71e 	bne	r2,zero,8000e60 <__alt_mem_onchip_memory2_0+0xf7fffde0>

		w[i] = w[i-Nk] ^ temp;
		i++;
	}

}
 8000f44:	0001883a 	nop
 8000f48:	e6ffff04 	addi	sp,fp,-4
 8000f4c:	dfc00217 	ldw	ra,8(sp)
 8000f50:	df000117 	ldw	fp,4(sp)
 8000f54:	dc000017 	ldw	r16,0(sp)
 8000f58:	dec00304 	addi	sp,sp,12
 8000f5c:	f800283a 	ret

08000f60 <RotWord>:
unsigned int RotWord(unsigned int w){
 8000f60:	defffe04 	addi	sp,sp,-8
 8000f64:	df000115 	stw	fp,4(sp)
 8000f68:	df000104 	addi	fp,sp,4
 8000f6c:	e13fff15 	stw	r4,-4(fp)
	return (w << 8 | w >> 24);
 8000f70:	e0bfff17 	ldw	r2,-4(fp)
 8000f74:	1004123a 	roli	r2,r2,8
}
 8000f78:	e037883a 	mov	sp,fp
 8000f7c:	df000017 	ldw	fp,0(sp)
 8000f80:	dec00104 	addi	sp,sp,4
 8000f84:	f800283a 	ret

08000f88 <SubWord>:
unsigned int SubWord(unsigned int word){
 8000f88:	defffa04 	addi	sp,sp,-24
 8000f8c:	df000515 	stw	fp,20(sp)
 8000f90:	df000504 	addi	fp,sp,20
 8000f94:	e13fff15 	stw	r4,-4(fp)

	//obtain each key from the word
	unsigned char keys[4];
	keys[0] = word & 0xFF;
 8000f98:	e0bfff17 	ldw	r2,-4(fp)
 8000f9c:	e0bffe05 	stb	r2,-8(fp)
	keys[1]= (word >> 8) & 0xFF;
 8000fa0:	e0bfff17 	ldw	r2,-4(fp)
 8000fa4:	1004d23a 	srli	r2,r2,8
 8000fa8:	e0bffe45 	stb	r2,-7(fp)
	keys[2] = (word >> 16) & 0xFF;
 8000fac:	e0bfff17 	ldw	r2,-4(fp)
 8000fb0:	1004d43a 	srli	r2,r2,16
 8000fb4:	e0bffe85 	stb	r2,-6(fp)
	keys[3] = word >> 24;
 8000fb8:	e0bfff17 	ldw	r2,-4(fp)
 8000fbc:	1004d63a 	srli	r2,r2,24
 8000fc0:	e0bffec5 	stb	r2,-5(fp)

	unsigned int result = 0;
 8000fc4:	e03ffb15 	stw	zero,-20(fp)
	for(int i = 0; i < 4; i++)
 8000fc8:	e03ffc15 	stw	zero,-16(fp)
 8000fcc:	00001f06 	br	800104c <SubWord+0xc4>
	{
		//word is 32 bits -- below modified from SubBytes
		unsigned int result1 = aes_sbox[((keys[i]) >> 4)*16 + (keys[i] & 0x0F)];
 8000fd0:	e0fffe04 	addi	r3,fp,-8
 8000fd4:	e0bffc17 	ldw	r2,-16(fp)
 8000fd8:	1885883a 	add	r2,r3,r2
 8000fdc:	10800003 	ldbu	r2,0(r2)
 8000fe0:	10803fcc 	andi	r2,r2,255
 8000fe4:	1004d13a 	srli	r2,r2,4
 8000fe8:	10803fcc 	andi	r2,r2,255
 8000fec:	1006913a 	slli	r3,r2,4
 8000ff0:	e13ffe04 	addi	r4,fp,-8
 8000ff4:	e0bffc17 	ldw	r2,-16(fp)
 8000ff8:	2085883a 	add	r2,r4,r2
 8000ffc:	10800003 	ldbu	r2,0(r2)
 8001000:	10803fcc 	andi	r2,r2,255
 8001004:	108003cc 	andi	r2,r2,15
 8001008:	1887883a 	add	r3,r3,r2
 800100c:	008200b4 	movhi	r2,2050
 8001010:	10a8ad04 	addi	r2,r2,-23884
 8001014:	10c5883a 	add	r2,r2,r3
 8001018:	10800003 	ldbu	r2,0(r2)
 800101c:	10803fcc 	andi	r2,r2,255
 8001020:	e0bffd15 	stw	r2,-12(fp)
		//combine all results into one int, beginning from right
		result = result1 << 8*i | result;
 8001024:	e0bffc17 	ldw	r2,-16(fp)
 8001028:	100490fa 	slli	r2,r2,3
 800102c:	e0fffd17 	ldw	r3,-12(fp)
 8001030:	1884983a 	sll	r2,r3,r2
 8001034:	e0fffb17 	ldw	r3,-20(fp)
 8001038:	1884b03a 	or	r2,r3,r2
 800103c:	e0bffb15 	stw	r2,-20(fp)
	keys[1]= (word >> 8) & 0xFF;
	keys[2] = (word >> 16) & 0xFF;
	keys[3] = word >> 24;

	unsigned int result = 0;
	for(int i = 0; i < 4; i++)
 8001040:	e0bffc17 	ldw	r2,-16(fp)
 8001044:	10800044 	addi	r2,r2,1
 8001048:	e0bffc15 	stw	r2,-16(fp)
 800104c:	e0bffc17 	ldw	r2,-16(fp)
 8001050:	10800110 	cmplti	r2,r2,4
 8001054:	103fde1e 	bne	r2,zero,8000fd0 <__alt_mem_onchip_memory2_0+0xf7ffff50>
		//word is 32 bits -- below modified from SubBytes
		unsigned int result1 = aes_sbox[((keys[i]) >> 4)*16 + (keys[i] & 0x0F)];
		//combine all results into one int, beginning from right
		result = result1 << 8*i | result;
	}
	return result;
 8001058:	e0bffb17 	ldw	r2,-20(fp)
}
 800105c:	e037883a 	mov	sp,fp
 8001060:	df000017 	ldw	fp,0(sp)
 8001064:	dec00104 	addi	sp,sp,4
 8001068:	f800283a 	ret

0800106c <AddRoundKey>:
void AddRoundKey(unsigned char * state, unsigned int * key, int round){
 800106c:	defffb04 	addi	sp,sp,-20
 8001070:	df000415 	stw	fp,16(sp)
 8001074:	df000404 	addi	fp,sp,16
 8001078:	e13ffd15 	stw	r4,-12(fp)
 800107c:	e17ffe15 	stw	r5,-8(fp)
 8001080:	e1bfff15 	stw	r6,-4(fp)

	//key[] size 4
	for(int i = 0; i < 4; i++)
 8001084:	e03ffc15 	stw	zero,-16(fp)
 8001088:	00005e06 	br	8001204 <AddRoundKey+0x198>
	{
		state[4*i] = state[4*i] ^ (key[i] >> 24);
 800108c:	e0bffc17 	ldw	r2,-16(fp)
 8001090:	1085883a 	add	r2,r2,r2
 8001094:	1085883a 	add	r2,r2,r2
 8001098:	1007883a 	mov	r3,r2
 800109c:	e0bffd17 	ldw	r2,-12(fp)
 80010a0:	10c7883a 	add	r3,r2,r3
 80010a4:	e0bffc17 	ldw	r2,-16(fp)
 80010a8:	1085883a 	add	r2,r2,r2
 80010ac:	1085883a 	add	r2,r2,r2
 80010b0:	1009883a 	mov	r4,r2
 80010b4:	e0bffd17 	ldw	r2,-12(fp)
 80010b8:	1105883a 	add	r2,r2,r4
 80010bc:	11000003 	ldbu	r4,0(r2)
 80010c0:	e0bffc17 	ldw	r2,-16(fp)
 80010c4:	1085883a 	add	r2,r2,r2
 80010c8:	1085883a 	add	r2,r2,r2
 80010cc:	100b883a 	mov	r5,r2
 80010d0:	e0bffe17 	ldw	r2,-8(fp)
 80010d4:	1145883a 	add	r2,r2,r5
 80010d8:	10800017 	ldw	r2,0(r2)
 80010dc:	1004d63a 	srli	r2,r2,24
 80010e0:	2084f03a 	xor	r2,r4,r2
 80010e4:	18800005 	stb	r2,0(r3)
		state[4*i + 1] = state[4*i + 1] ^ (key[i] >> 16);
 80010e8:	e0bffc17 	ldw	r2,-16(fp)
 80010ec:	1085883a 	add	r2,r2,r2
 80010f0:	1085883a 	add	r2,r2,r2
 80010f4:	10800044 	addi	r2,r2,1
 80010f8:	e0fffd17 	ldw	r3,-12(fp)
 80010fc:	1887883a 	add	r3,r3,r2
 8001100:	e0bffc17 	ldw	r2,-16(fp)
 8001104:	1085883a 	add	r2,r2,r2
 8001108:	1085883a 	add	r2,r2,r2
 800110c:	10800044 	addi	r2,r2,1
 8001110:	e13ffd17 	ldw	r4,-12(fp)
 8001114:	2085883a 	add	r2,r4,r2
 8001118:	11000003 	ldbu	r4,0(r2)
 800111c:	e0bffc17 	ldw	r2,-16(fp)
 8001120:	1085883a 	add	r2,r2,r2
 8001124:	1085883a 	add	r2,r2,r2
 8001128:	100b883a 	mov	r5,r2
 800112c:	e0bffe17 	ldw	r2,-8(fp)
 8001130:	1145883a 	add	r2,r2,r5
 8001134:	10800017 	ldw	r2,0(r2)
 8001138:	1004d43a 	srli	r2,r2,16
 800113c:	2084f03a 	xor	r2,r4,r2
 8001140:	18800005 	stb	r2,0(r3)
	    state[4*i + 2] = state[4*i + 2] ^ (key[i] >> 8);
 8001144:	e0bffc17 	ldw	r2,-16(fp)
 8001148:	1085883a 	add	r2,r2,r2
 800114c:	1085883a 	add	r2,r2,r2
 8001150:	10800084 	addi	r2,r2,2
 8001154:	e0fffd17 	ldw	r3,-12(fp)
 8001158:	1887883a 	add	r3,r3,r2
 800115c:	e0bffc17 	ldw	r2,-16(fp)
 8001160:	1085883a 	add	r2,r2,r2
 8001164:	1085883a 	add	r2,r2,r2
 8001168:	10800084 	addi	r2,r2,2
 800116c:	e13ffd17 	ldw	r4,-12(fp)
 8001170:	2085883a 	add	r2,r4,r2
 8001174:	11000003 	ldbu	r4,0(r2)
 8001178:	e0bffc17 	ldw	r2,-16(fp)
 800117c:	1085883a 	add	r2,r2,r2
 8001180:	1085883a 	add	r2,r2,r2
 8001184:	100b883a 	mov	r5,r2
 8001188:	e0bffe17 	ldw	r2,-8(fp)
 800118c:	1145883a 	add	r2,r2,r5
 8001190:	10800017 	ldw	r2,0(r2)
 8001194:	1004d23a 	srli	r2,r2,8
 8001198:	2084f03a 	xor	r2,r4,r2
 800119c:	18800005 	stb	r2,0(r3)
		state[4*i + 3] = state[4*i + 3] ^ (key[i]);
 80011a0:	e0bffc17 	ldw	r2,-16(fp)
 80011a4:	1085883a 	add	r2,r2,r2
 80011a8:	1085883a 	add	r2,r2,r2
 80011ac:	108000c4 	addi	r2,r2,3
 80011b0:	e0fffd17 	ldw	r3,-12(fp)
 80011b4:	1887883a 	add	r3,r3,r2
 80011b8:	e0bffc17 	ldw	r2,-16(fp)
 80011bc:	1085883a 	add	r2,r2,r2
 80011c0:	1085883a 	add	r2,r2,r2
 80011c4:	108000c4 	addi	r2,r2,3
 80011c8:	e13ffd17 	ldw	r4,-12(fp)
 80011cc:	2085883a 	add	r2,r4,r2
 80011d0:	11000003 	ldbu	r4,0(r2)
 80011d4:	e0bffc17 	ldw	r2,-16(fp)
 80011d8:	1085883a 	add	r2,r2,r2
 80011dc:	1085883a 	add	r2,r2,r2
 80011e0:	100b883a 	mov	r5,r2
 80011e4:	e0bffe17 	ldw	r2,-8(fp)
 80011e8:	1145883a 	add	r2,r2,r5
 80011ec:	10800017 	ldw	r2,0(r2)
 80011f0:	2084f03a 	xor	r2,r4,r2
 80011f4:	18800005 	stb	r2,0(r3)
	return result;
}
void AddRoundKey(unsigned char * state, unsigned int * key, int round){

	//key[] size 4
	for(int i = 0; i < 4; i++)
 80011f8:	e0bffc17 	ldw	r2,-16(fp)
 80011fc:	10800044 	addi	r2,r2,1
 8001200:	e0bffc15 	stw	r2,-16(fp)
 8001204:	e0bffc17 	ldw	r2,-16(fp)
 8001208:	10800110 	cmplti	r2,r2,4
 800120c:	103f9f1e 	bne	r2,zero,800108c <__alt_mem_onchip_memory2_0+0xf800000c>
		state[4*i + 1] = state[4*i + 1] ^ (key[i] >> 16);
	    state[4*i + 2] = state[4*i + 2] ^ (key[i] >> 8);
		state[4*i + 3] = state[4*i + 3] ^ (key[i]);
	}

}
 8001210:	0001883a 	nop
 8001214:	e037883a 	mov	sp,fp
 8001218:	df000017 	ldw	fp,0(sp)
 800121c:	dec00104 	addi	sp,sp,4
 8001220:	f800283a 	ret

08001224 <decrypt>:
 *  Output: msg_dec - Pointer to 4x 32-bit int array that contains the decrypted message
 */

 //WEEK 2
void decrypt(unsigned int * msg_enc, unsigned int * msg_dec, unsigned int * key)
{
 8001224:	defffc04 	addi	sp,sp,-16
 8001228:	df000315 	stw	fp,12(sp)
 800122c:	df000304 	addi	fp,sp,12
 8001230:	e13ffd15 	stw	r4,-12(fp)
 8001234:	e17ffe15 	stw	r5,-8(fp)
 8001238:	e1bfff15 	stw	r6,-4(fp)
	//fill partial regfile -- key and enc
	AES_PTR[0] = key[0];
 800123c:	d0a00017 	ldw	r2,-32768(gp)
 8001240:	e0ffff17 	ldw	r3,-4(fp)
 8001244:	18c00017 	ldw	r3,0(r3)
 8001248:	10c00015 	stw	r3,0(r2)
	AES_PTR[1] = key[1];
 800124c:	d0a00017 	ldw	r2,-32768(gp)
 8001250:	10800104 	addi	r2,r2,4
 8001254:	e0ffff17 	ldw	r3,-4(fp)
 8001258:	18c00117 	ldw	r3,4(r3)
 800125c:	10c00015 	stw	r3,0(r2)
	AES_PTR[2] = key[2];
 8001260:	d0a00017 	ldw	r2,-32768(gp)
 8001264:	10800204 	addi	r2,r2,8
 8001268:	e0ffff17 	ldw	r3,-4(fp)
 800126c:	18c00217 	ldw	r3,8(r3)
 8001270:	10c00015 	stw	r3,0(r2)
	AES_PTR[3] = key[3];
 8001274:	d0a00017 	ldw	r2,-32768(gp)
 8001278:	10800304 	addi	r2,r2,12
 800127c:	e0ffff17 	ldw	r3,-4(fp)
 8001280:	18c00317 	ldw	r3,12(r3)
 8001284:	10c00015 	stw	r3,0(r2)
	AES_PTR[4] = msg_enc[0];
 8001288:	d0a00017 	ldw	r2,-32768(gp)
 800128c:	10800404 	addi	r2,r2,16
 8001290:	e0fffd17 	ldw	r3,-12(fp)
 8001294:	18c00017 	ldw	r3,0(r3)
 8001298:	10c00015 	stw	r3,0(r2)
	AES_PTR[5] = msg_enc[1];
 800129c:	d0a00017 	ldw	r2,-32768(gp)
 80012a0:	10800504 	addi	r2,r2,20
 80012a4:	e0fffd17 	ldw	r3,-12(fp)
 80012a8:	18c00117 	ldw	r3,4(r3)
 80012ac:	10c00015 	stw	r3,0(r2)
	AES_PTR[6] = msg_enc[2];
 80012b0:	d0a00017 	ldw	r2,-32768(gp)
 80012b4:	10800604 	addi	r2,r2,24
 80012b8:	e0fffd17 	ldw	r3,-12(fp)
 80012bc:	18c00217 	ldw	r3,8(r3)
 80012c0:	10c00015 	stw	r3,0(r2)
	AES_PTR[7] = msg_enc[3];
 80012c4:	d0a00017 	ldw	r2,-32768(gp)
 80012c8:	10800704 	addi	r2,r2,28
 80012cc:	e0fffd17 	ldw	r3,-12(fp)
 80012d0:	18c00317 	ldw	r3,12(r3)
 80012d4:	10c00015 	stw	r3,0(r2)

	//tell hardware that we're ready
	AES_PTR[14] = 1;
 80012d8:	d0a00017 	ldw	r2,-32768(gp)
 80012dc:	10800e04 	addi	r2,r2,56
 80012e0:	00c00044 	movi	r3,1
 80012e4:	10c00015 	stw	r3,0(r2)
	AES_PTR[14] = 0;
 80012e8:	d0a00017 	ldw	r2,-32768(gp)
 80012ec:	10800e04 	addi	r2,r2,56
 80012f0:	10000015 	stw	zero,0(r2)

	//wait until hardware is done
	while (AES_PTR[15] == 0) {}
 80012f4:	0001883a 	nop
 80012f8:	d0a00017 	ldw	r2,-32768(gp)
 80012fc:	10800f04 	addi	r2,r2,60
 8001300:	10800017 	ldw	r2,0(r2)
 8001304:	103ffc26 	beq	r2,zero,80012f8 <__alt_mem_onchip_memory2_0+0xf8000278>

	//write dec from regfile
	msg_dec[0] = AES_PTR[8];
 8001308:	d0a00017 	ldw	r2,-32768(gp)
 800130c:	10c00817 	ldw	r3,32(r2)
 8001310:	e0bffe17 	ldw	r2,-8(fp)
 8001314:	10c00015 	stw	r3,0(r2)
	msg_dec[1] = AES_PTR[9];
 8001318:	e0bffe17 	ldw	r2,-8(fp)
 800131c:	10800104 	addi	r2,r2,4
 8001320:	d0e00017 	ldw	r3,-32768(gp)
 8001324:	18c00917 	ldw	r3,36(r3)
 8001328:	10c00015 	stw	r3,0(r2)
	msg_dec[2] = AES_PTR[10];
 800132c:	e0bffe17 	ldw	r2,-8(fp)
 8001330:	10800204 	addi	r2,r2,8
 8001334:	d0e00017 	ldw	r3,-32768(gp)
 8001338:	18c00a17 	ldw	r3,40(r3)
 800133c:	10c00015 	stw	r3,0(r2)
	msg_dec[3] = AES_PTR[11];
 8001340:	e0bffe17 	ldw	r2,-8(fp)
 8001344:	10800304 	addi	r2,r2,12
 8001348:	d0e00017 	ldw	r3,-32768(gp)
 800134c:	18c00b17 	ldw	r3,44(r3)
 8001350:	10c00015 	stw	r3,0(r2)
}
 8001354:	0001883a 	nop
 8001358:	e037883a 	mov	sp,fp
 800135c:	df000017 	ldw	fp,0(sp)
 8001360:	dec00104 	addi	sp,sp,4
 8001364:	f800283a 	ret

08001368 <main>:
/** main
 *  Allows the user to enter the message, key, and select execution mode
 *
 */
int main()
{
 8001368:	deffd804 	addi	sp,sp,-160
 800136c:	dfc02715 	stw	ra,156(sp)
 8001370:	df002615 	stw	fp,152(sp)
 8001374:	df002604 	addi	fp,sp,152
	// Key, Encrypted Message, and Decrypted Message in 4x 32-bit Format to facilitate Read/Write to Hardware
	unsigned int key[4];
	unsigned int msg_enc[4];
	unsigned int msg_dec[4];

	printf("Select execution mode: 0 for testing, 1 for benchmarking:  ");
 8001378:	010200b4 	movhi	r4,2050
 800137c:	21292d04 	addi	r4,r4,-23372
 8001380:	80025600 	call	8002560 <printf>
	scanf("%d", &run_mode);
 8001384:	d1686104 	addi	r5,gp,-24188
 8001388:	010200b4 	movhi	r4,2050
 800138c:	21293c04 	addi	r4,r4,-23312
 8001390:	80026900 	call	8002690 <scanf>

	//keep zeros
	AES_PTR[8] = 0;
 8001394:	d0a00017 	ldw	r2,-32768(gp)
 8001398:	10800804 	addi	r2,r2,32
 800139c:	10000015 	stw	zero,0(r2)
	AES_PTR[9] = 0;
 80013a0:	d0a00017 	ldw	r2,-32768(gp)
 80013a4:	10800904 	addi	r2,r2,36
 80013a8:	10000015 	stw	zero,0(r2)
	AES_PTR[10] = 0;
 80013ac:	d0a00017 	ldw	r2,-32768(gp)
 80013b0:	10800a04 	addi	r2,r2,40
 80013b4:	10000015 	stw	zero,0(r2)
	AES_PTR[11] = 0;
 80013b8:	d0a00017 	ldw	r2,-32768(gp)
 80013bc:	10800b04 	addi	r2,r2,44
 80013c0:	10000015 	stw	zero,0(r2)

	if (run_mode == 0) {
 80013c4:	d0a86117 	ldw	r2,-24188(gp)
 80013c8:	1000561e 	bne	r2,zero,8001524 <main+0x1bc>
		// Continuously Perform Encryption and Decryption
		while (1) {
			int i = 0;
 80013cc:	e03fda15 	stw	zero,-152(fp)
			printf("\nEnter Message:\n");
 80013d0:	010200b4 	movhi	r4,2050
 80013d4:	21293d04 	addi	r4,r4,-23308
 80013d8:	800267c0 	call	800267c <puts>
			scanf("%s", msg_ascii);
 80013dc:	e0bfe304 	addi	r2,fp,-116
 80013e0:	100b883a 	mov	r5,r2
 80013e4:	010200b4 	movhi	r4,2050
 80013e8:	21294104 	addi	r4,r4,-23292
 80013ec:	80026900 	call	8002690 <scanf>
			printf("\n");
 80013f0:	01000284 	movi	r4,10
 80013f4:	80025a40 	call	80025a4 <putchar>
			printf("\nEnter Key:\n");
 80013f8:	010200b4 	movhi	r4,2050
 80013fc:	21294204 	addi	r4,r4,-23288
 8001400:	800267c0 	call	800267c <puts>
			scanf("%s", key_ascii);
 8001404:	e0bfeb44 	addi	r2,fp,-83
 8001408:	100b883a 	mov	r5,r2
 800140c:	010200b4 	movhi	r4,2050
 8001410:	21294104 	addi	r4,r4,-23292
 8001414:	80026900 	call	8002690 <scanf>
			printf("\n");
 8001418:	01000284 	movi	r4,10
 800141c:	80025a40 	call	80025a4 <putchar>
			encrypt(msg_ascii, key_ascii, msg_enc, key);
 8001420:	e17ff404 	addi	r5,fp,-48
 8001424:	e13ff804 	addi	r4,fp,-32
 8001428:	e0ffeb44 	addi	r3,fp,-83
 800142c:	e0bfe304 	addi	r2,fp,-116
 8001430:	280f883a 	mov	r7,r5
 8001434:	200d883a 	mov	r6,r4
 8001438:	180b883a 	mov	r5,r3
 800143c:	1009883a 	mov	r4,r2
 8001440:	80003900 	call	8000390 <encrypt>

			printf("\nEncrypted message is: \n");
 8001444:	010200b4 	movhi	r4,2050
 8001448:	21294504 	addi	r4,r4,-23276
 800144c:	800267c0 	call	800267c <puts>

			for(i = 0; i < 4; i++){
 8001450:	e03fda15 	stw	zero,-152(fp)
 8001454:	00000e06 	br	8001490 <main+0x128>
				printf("%08x", msg_enc[i]);
 8001458:	e0bfda17 	ldw	r2,-152(fp)
 800145c:	1085883a 	add	r2,r2,r2
 8001460:	1085883a 	add	r2,r2,r2
 8001464:	e0ffda04 	addi	r3,fp,-152
 8001468:	1885883a 	add	r2,r3,r2
 800146c:	10801e04 	addi	r2,r2,120
 8001470:	10800017 	ldw	r2,0(r2)
 8001474:	100b883a 	mov	r5,r2
 8001478:	010200b4 	movhi	r4,2050
 800147c:	21294b04 	addi	r4,r4,-23252
 8001480:	80025600 	call	8002560 <printf>
			printf("\n");
			encrypt(msg_ascii, key_ascii, msg_enc, key);

			printf("\nEncrypted message is: \n");

			for(i = 0; i < 4; i++){
 8001484:	e0bfda17 	ldw	r2,-152(fp)
 8001488:	10800044 	addi	r2,r2,1
 800148c:	e0bfda15 	stw	r2,-152(fp)
 8001490:	e0bfda17 	ldw	r2,-152(fp)
 8001494:	10800110 	cmplti	r2,r2,4
 8001498:	103fef1e 	bne	r2,zero,8001458 <__alt_mem_onchip_memory2_0+0xf80003d8>
				printf("%08x", msg_enc[i]);
			}
			printf("\n");
 800149c:	01000284 	movi	r4,10
 80014a0:	80025a40 	call	80025a4 <putchar>

			decrypt(msg_enc, msg_dec, key);
 80014a4:	e13ff404 	addi	r4,fp,-48
 80014a8:	e0fffc04 	addi	r3,fp,-16
 80014ac:	e0bff804 	addi	r2,fp,-32
 80014b0:	200d883a 	mov	r6,r4
 80014b4:	180b883a 	mov	r5,r3
 80014b8:	1009883a 	mov	r4,r2
 80014bc:	80012240 	call	8001224 <decrypt>
			printf("\nDecrypted message is: \n");
 80014c0:	010200b4 	movhi	r4,2050
 80014c4:	21294d04 	addi	r4,r4,-23244
 80014c8:	800267c0 	call	800267c <puts>
			for(i = 0; i < 4; i++){
 80014cc:	e03fda15 	stw	zero,-152(fp)
 80014d0:	00000e06 	br	800150c <main+0x1a4>
				printf("%08x", msg_dec[i]);
 80014d4:	e0bfda17 	ldw	r2,-152(fp)
 80014d8:	1085883a 	add	r2,r2,r2
 80014dc:	1085883a 	add	r2,r2,r2
 80014e0:	e0ffda04 	addi	r3,fp,-152
 80014e4:	1885883a 	add	r2,r3,r2
 80014e8:	10802204 	addi	r2,r2,136
 80014ec:	10800017 	ldw	r2,0(r2)
 80014f0:	100b883a 	mov	r5,r2
 80014f4:	010200b4 	movhi	r4,2050
 80014f8:	21294b04 	addi	r4,r4,-23252
 80014fc:	80025600 	call	8002560 <printf>
			}
			printf("\n");

			decrypt(msg_enc, msg_dec, key);
			printf("\nDecrypted message is: \n");
			for(i = 0; i < 4; i++){
 8001500:	e0bfda17 	ldw	r2,-152(fp)
 8001504:	10800044 	addi	r2,r2,1
 8001508:	e0bfda15 	stw	r2,-152(fp)
 800150c:	e0bfda17 	ldw	r2,-152(fp)
 8001510:	10800110 	cmplti	r2,r2,4
 8001514:	103fef1e 	bne	r2,zero,80014d4 <__alt_mem_onchip_memory2_0+0xf8000454>
				printf("%08x", msg_dec[i]);
			}
			printf("\n");
 8001518:	01000284 	movi	r4,10
 800151c:	80025a40 	call	80025a4 <putchar>
		}
 8001520:	003faa06 	br	80013cc <__alt_mem_onchip_memory2_0+0xf800034c>
	}
	else {
		// Run the Benchmark
		int i = 0;
 8001524:	e03fdb15 	stw	zero,-148(fp)
		int size_KB = 2;
 8001528:	00800084 	movi	r2,2
 800152c:	e0bfdc15 	stw	r2,-144(fp)
		// Choose a random Plaintext and Key
		for (i = 0; i < 32; i++) {
 8001530:	e03fdb15 	stw	zero,-148(fp)
 8001534:	00000d06 	br	800156c <main+0x204>
			msg_ascii[i] = 'a';
 8001538:	e0ffe304 	addi	r3,fp,-116
 800153c:	e0bfdb17 	ldw	r2,-148(fp)
 8001540:	1885883a 	add	r2,r3,r2
 8001544:	00c01844 	movi	r3,97
 8001548:	10c00005 	stb	r3,0(r2)
			key_ascii[i] = 'b';
 800154c:	e0ffeb44 	addi	r3,fp,-83
 8001550:	e0bfdb17 	ldw	r2,-148(fp)
 8001554:	1885883a 	add	r2,r3,r2
 8001558:	00c01884 	movi	r3,98
 800155c:	10c00005 	stb	r3,0(r2)
	else {
		// Run the Benchmark
		int i = 0;
		int size_KB = 2;
		// Choose a random Plaintext and Key
		for (i = 0; i < 32; i++) {
 8001560:	e0bfdb17 	ldw	r2,-148(fp)
 8001564:	10800044 	addi	r2,r2,1
 8001568:	e0bfdb15 	stw	r2,-148(fp)
 800156c:	e0bfdb17 	ldw	r2,-148(fp)
 8001570:	10800810 	cmplti	r2,r2,32
 8001574:	103ff01e 	bne	r2,zero,8001538 <__alt_mem_onchip_memory2_0+0xf80004b8>
			msg_ascii[i] = 'a';
			key_ascii[i] = 'b';
		}
		// Run Encryption
		clock_t begin = clock();
 8001578:	80024e40 	call	80024e4 <clock>
 800157c:	e0bfdd15 	stw	r2,-140(fp)
		for (i = 0; i < size_KB * 64; i++)
 8001580:	e03fdb15 	stw	zero,-148(fp)
 8001584:	00000c06 	br	80015b8 <main+0x250>
			encrypt(msg_ascii, key_ascii, msg_enc, key);
 8001588:	e17ff404 	addi	r5,fp,-48
 800158c:	e13ff804 	addi	r4,fp,-32
 8001590:	e0ffeb44 	addi	r3,fp,-83
 8001594:	e0bfe304 	addi	r2,fp,-116
 8001598:	280f883a 	mov	r7,r5
 800159c:	200d883a 	mov	r6,r4
 80015a0:	180b883a 	mov	r5,r3
 80015a4:	1009883a 	mov	r4,r2
 80015a8:	80003900 	call	8000390 <encrypt>
			msg_ascii[i] = 'a';
			key_ascii[i] = 'b';
		}
		// Run Encryption
		clock_t begin = clock();
		for (i = 0; i < size_KB * 64; i++)
 80015ac:	e0bfdb17 	ldw	r2,-148(fp)
 80015b0:	10800044 	addi	r2,r2,1
 80015b4:	e0bfdb15 	stw	r2,-148(fp)
 80015b8:	e0bfdc17 	ldw	r2,-144(fp)
 80015bc:	100491ba 	slli	r2,r2,6
 80015c0:	e0ffdb17 	ldw	r3,-148(fp)
 80015c4:	18bff016 	blt	r3,r2,8001588 <__alt_mem_onchip_memory2_0+0xf8000508>
			encrypt(msg_ascii, key_ascii, msg_enc, key);
		clock_t end = clock();
 80015c8:	80024e40 	call	80024e4 <clock>
 80015cc:	e0bfde15 	stw	r2,-136(fp)
		double time_spent = (double)(end - begin) / CLOCKS_PER_SEC;
 80015d0:	e0ffde17 	ldw	r3,-136(fp)
 80015d4:	e0bfdd17 	ldw	r2,-140(fp)
 80015d8:	1885c83a 	sub	r2,r3,r2
 80015dc:	1009883a 	mov	r4,r2
 80015e0:	80023d80 	call	80023d8 <__floatunsidf>
 80015e4:	1011883a 	mov	r8,r2
 80015e8:	1813883a 	mov	r9,r3
 80015ec:	000d883a 	mov	r6,zero
 80015f0:	01d023f4 	movhi	r7,16527
 80015f4:	39d00004 	addi	r7,r7,16384
 80015f8:	4009883a 	mov	r4,r8
 80015fc:	480b883a 	mov	r5,r9
 8001600:	800192c0 	call	800192c <__divdf3>
 8001604:	1009883a 	mov	r4,r2
 8001608:	180b883a 	mov	r5,r3
 800160c:	e13fdf15 	stw	r4,-132(fp)
 8001610:	e17fe015 	stw	r5,-128(fp)
		double speed = size_KB / time_spent;
 8001614:	e13fdc17 	ldw	r4,-144(fp)
 8001618:	80022fc0 	call	80022fc <__floatsidf>
 800161c:	1011883a 	mov	r8,r2
 8001620:	1813883a 	mov	r9,r3
 8001624:	e1bfdf17 	ldw	r6,-132(fp)
 8001628:	e1ffe017 	ldw	r7,-128(fp)
 800162c:	4009883a 	mov	r4,r8
 8001630:	480b883a 	mov	r5,r9
 8001634:	800192c0 	call	800192c <__divdf3>
 8001638:	1009883a 	mov	r4,r2
 800163c:	180b883a 	mov	r5,r3
 8001640:	e13fe115 	stw	r4,-124(fp)
 8001644:	e17fe215 	stw	r5,-120(fp)
		printf("Software Encryption Speed: %f KB/s \n", speed);
 8001648:	e17fe117 	ldw	r5,-124(fp)
 800164c:	e1bfe217 	ldw	r6,-120(fp)
 8001650:	010200b4 	movhi	r4,2050
 8001654:	21295304 	addi	r4,r4,-23220
 8001658:	80025600 	call	8002560 <printf>

		// Run Decryption
		begin = clock();
 800165c:	80024e40 	call	80024e4 <clock>
 8001660:	e0bfdd15 	stw	r2,-140(fp)
		for (i = 0; i < size_KB * 64; i++)
 8001664:	e03fdb15 	stw	zero,-148(fp)
 8001668:	00000a06 	br	8001694 <main+0x32c>
			decrypt(msg_enc, msg_dec, key);
 800166c:	e13ff404 	addi	r4,fp,-48
 8001670:	e0fffc04 	addi	r3,fp,-16
 8001674:	e0bff804 	addi	r2,fp,-32
 8001678:	200d883a 	mov	r6,r4
 800167c:	180b883a 	mov	r5,r3
 8001680:	1009883a 	mov	r4,r2
 8001684:	80012240 	call	8001224 <decrypt>
		double speed = size_KB / time_spent;
		printf("Software Encryption Speed: %f KB/s \n", speed);

		// Run Decryption
		begin = clock();
		for (i = 0; i < size_KB * 64; i++)
 8001688:	e0bfdb17 	ldw	r2,-148(fp)
 800168c:	10800044 	addi	r2,r2,1
 8001690:	e0bfdb15 	stw	r2,-148(fp)
 8001694:	e0bfdc17 	ldw	r2,-144(fp)
 8001698:	100491ba 	slli	r2,r2,6
 800169c:	e0ffdb17 	ldw	r3,-148(fp)
 80016a0:	18bff216 	blt	r3,r2,800166c <__alt_mem_onchip_memory2_0+0xf80005ec>
			decrypt(msg_enc, msg_dec, key);
		end = clock();
 80016a4:	80024e40 	call	80024e4 <clock>
 80016a8:	e0bfde15 	stw	r2,-136(fp)
		time_spent = (double)(end - begin) / CLOCKS_PER_SEC;
 80016ac:	e0ffde17 	ldw	r3,-136(fp)
 80016b0:	e0bfdd17 	ldw	r2,-140(fp)
 80016b4:	1885c83a 	sub	r2,r3,r2
 80016b8:	1009883a 	mov	r4,r2
 80016bc:	80023d80 	call	80023d8 <__floatunsidf>
 80016c0:	1011883a 	mov	r8,r2
 80016c4:	1813883a 	mov	r9,r3
 80016c8:	000d883a 	mov	r6,zero
 80016cc:	01d023f4 	movhi	r7,16527
 80016d0:	39d00004 	addi	r7,r7,16384
 80016d4:	4009883a 	mov	r4,r8
 80016d8:	480b883a 	mov	r5,r9
 80016dc:	800192c0 	call	800192c <__divdf3>
 80016e0:	1009883a 	mov	r4,r2
 80016e4:	180b883a 	mov	r5,r3
 80016e8:	e13fdf15 	stw	r4,-132(fp)
 80016ec:	e17fe015 	stw	r5,-128(fp)
		speed = size_KB / time_spent;
 80016f0:	e13fdc17 	ldw	r4,-144(fp)
 80016f4:	80022fc0 	call	80022fc <__floatsidf>
 80016f8:	1011883a 	mov	r8,r2
 80016fc:	1813883a 	mov	r9,r3
 8001700:	e1bfdf17 	ldw	r6,-132(fp)
 8001704:	e1ffe017 	ldw	r7,-128(fp)
 8001708:	4009883a 	mov	r4,r8
 800170c:	480b883a 	mov	r5,r9
 8001710:	800192c0 	call	800192c <__divdf3>
 8001714:	1009883a 	mov	r4,r2
 8001718:	180b883a 	mov	r5,r3
 800171c:	e13fe115 	stw	r4,-124(fp)
 8001720:	e17fe215 	stw	r5,-120(fp)
		printf("Hardware Decryption Speed: %f KB/s \n", speed);
 8001724:	e17fe117 	ldw	r5,-124(fp)
 8001728:	e1bfe217 	ldw	r6,-120(fp)
 800172c:	010200b4 	movhi	r4,2050
 8001730:	21295d04 	addi	r4,r4,-23180
 8001734:	80025600 	call	8002560 <printf>
	}
	return 0;
 8001738:	0005883a 	mov	r2,zero
}
 800173c:	e037883a 	mov	sp,fp
 8001740:	dfc00117 	ldw	ra,4(sp)
 8001744:	df000017 	ldw	fp,0(sp)
 8001748:	dec00204 	addi	sp,sp,8
 800174c:	f800283a 	ret

08001750 <__divsi3>:
 8001750:	20001b16 	blt	r4,zero,80017c0 <__divsi3+0x70>
 8001754:	000f883a 	mov	r7,zero
 8001758:	28001616 	blt	r5,zero,80017b4 <__divsi3+0x64>
 800175c:	200d883a 	mov	r6,r4
 8001760:	29001a2e 	bgeu	r5,r4,80017cc <__divsi3+0x7c>
 8001764:	00800804 	movi	r2,32
 8001768:	00c00044 	movi	r3,1
 800176c:	00000106 	br	8001774 <__divsi3+0x24>
 8001770:	10000d26 	beq	r2,zero,80017a8 <__divsi3+0x58>
 8001774:	294b883a 	add	r5,r5,r5
 8001778:	10bfffc4 	addi	r2,r2,-1
 800177c:	18c7883a 	add	r3,r3,r3
 8001780:	293ffb36 	bltu	r5,r4,8001770 <__alt_mem_onchip_memory2_0+0xf80006f0>
 8001784:	0005883a 	mov	r2,zero
 8001788:	18000726 	beq	r3,zero,80017a8 <__divsi3+0x58>
 800178c:	0005883a 	mov	r2,zero
 8001790:	31400236 	bltu	r6,r5,800179c <__divsi3+0x4c>
 8001794:	314dc83a 	sub	r6,r6,r5
 8001798:	10c4b03a 	or	r2,r2,r3
 800179c:	1806d07a 	srli	r3,r3,1
 80017a0:	280ad07a 	srli	r5,r5,1
 80017a4:	183ffa1e 	bne	r3,zero,8001790 <__alt_mem_onchip_memory2_0+0xf8000710>
 80017a8:	38000126 	beq	r7,zero,80017b0 <__divsi3+0x60>
 80017ac:	0085c83a 	sub	r2,zero,r2
 80017b0:	f800283a 	ret
 80017b4:	014bc83a 	sub	r5,zero,r5
 80017b8:	39c0005c 	xori	r7,r7,1
 80017bc:	003fe706 	br	800175c <__alt_mem_onchip_memory2_0+0xf80006dc>
 80017c0:	0109c83a 	sub	r4,zero,r4
 80017c4:	01c00044 	movi	r7,1
 80017c8:	003fe306 	br	8001758 <__alt_mem_onchip_memory2_0+0xf80006d8>
 80017cc:	00c00044 	movi	r3,1
 80017d0:	003fee06 	br	800178c <__alt_mem_onchip_memory2_0+0xf800070c>

080017d4 <__modsi3>:
 80017d4:	20001716 	blt	r4,zero,8001834 <__modsi3+0x60>
 80017d8:	000f883a 	mov	r7,zero
 80017dc:	2005883a 	mov	r2,r4
 80017e0:	28001216 	blt	r5,zero,800182c <__modsi3+0x58>
 80017e4:	2900162e 	bgeu	r5,r4,8001840 <__modsi3+0x6c>
 80017e8:	01800804 	movi	r6,32
 80017ec:	00c00044 	movi	r3,1
 80017f0:	00000106 	br	80017f8 <__modsi3+0x24>
 80017f4:	30000a26 	beq	r6,zero,8001820 <__modsi3+0x4c>
 80017f8:	294b883a 	add	r5,r5,r5
 80017fc:	31bfffc4 	addi	r6,r6,-1
 8001800:	18c7883a 	add	r3,r3,r3
 8001804:	293ffb36 	bltu	r5,r4,80017f4 <__alt_mem_onchip_memory2_0+0xf8000774>
 8001808:	18000526 	beq	r3,zero,8001820 <__modsi3+0x4c>
 800180c:	1806d07a 	srli	r3,r3,1
 8001810:	11400136 	bltu	r2,r5,8001818 <__modsi3+0x44>
 8001814:	1145c83a 	sub	r2,r2,r5
 8001818:	280ad07a 	srli	r5,r5,1
 800181c:	183ffb1e 	bne	r3,zero,800180c <__alt_mem_onchip_memory2_0+0xf800078c>
 8001820:	38000126 	beq	r7,zero,8001828 <__modsi3+0x54>
 8001824:	0085c83a 	sub	r2,zero,r2
 8001828:	f800283a 	ret
 800182c:	014bc83a 	sub	r5,zero,r5
 8001830:	003fec06 	br	80017e4 <__alt_mem_onchip_memory2_0+0xf8000764>
 8001834:	0109c83a 	sub	r4,zero,r4
 8001838:	01c00044 	movi	r7,1
 800183c:	003fe706 	br	80017dc <__alt_mem_onchip_memory2_0+0xf800075c>
 8001840:	00c00044 	movi	r3,1
 8001844:	003ff106 	br	800180c <__alt_mem_onchip_memory2_0+0xf800078c>

08001848 <__udivsi3>:
 8001848:	200d883a 	mov	r6,r4
 800184c:	2900152e 	bgeu	r5,r4,80018a4 <__udivsi3+0x5c>
 8001850:	28001416 	blt	r5,zero,80018a4 <__udivsi3+0x5c>
 8001854:	00800804 	movi	r2,32
 8001858:	00c00044 	movi	r3,1
 800185c:	00000206 	br	8001868 <__udivsi3+0x20>
 8001860:	10000e26 	beq	r2,zero,800189c <__udivsi3+0x54>
 8001864:	28000516 	blt	r5,zero,800187c <__udivsi3+0x34>
 8001868:	294b883a 	add	r5,r5,r5
 800186c:	10bfffc4 	addi	r2,r2,-1
 8001870:	18c7883a 	add	r3,r3,r3
 8001874:	293ffa36 	bltu	r5,r4,8001860 <__alt_mem_onchip_memory2_0+0xf80007e0>
 8001878:	18000826 	beq	r3,zero,800189c <__udivsi3+0x54>
 800187c:	0005883a 	mov	r2,zero
 8001880:	31400236 	bltu	r6,r5,800188c <__udivsi3+0x44>
 8001884:	314dc83a 	sub	r6,r6,r5
 8001888:	10c4b03a 	or	r2,r2,r3
 800188c:	1806d07a 	srli	r3,r3,1
 8001890:	280ad07a 	srli	r5,r5,1
 8001894:	183ffa1e 	bne	r3,zero,8001880 <__alt_mem_onchip_memory2_0+0xf8000800>
 8001898:	f800283a 	ret
 800189c:	0005883a 	mov	r2,zero
 80018a0:	f800283a 	ret
 80018a4:	00c00044 	movi	r3,1
 80018a8:	003ff406 	br	800187c <__alt_mem_onchip_memory2_0+0xf80007fc>

080018ac <__umodsi3>:
 80018ac:	2005883a 	mov	r2,r4
 80018b0:	2900122e 	bgeu	r5,r4,80018fc <__umodsi3+0x50>
 80018b4:	28001116 	blt	r5,zero,80018fc <__umodsi3+0x50>
 80018b8:	01800804 	movi	r6,32
 80018bc:	00c00044 	movi	r3,1
 80018c0:	00000206 	br	80018cc <__umodsi3+0x20>
 80018c4:	30000c26 	beq	r6,zero,80018f8 <__umodsi3+0x4c>
 80018c8:	28000516 	blt	r5,zero,80018e0 <__umodsi3+0x34>
 80018cc:	294b883a 	add	r5,r5,r5
 80018d0:	31bfffc4 	addi	r6,r6,-1
 80018d4:	18c7883a 	add	r3,r3,r3
 80018d8:	293ffa36 	bltu	r5,r4,80018c4 <__alt_mem_onchip_memory2_0+0xf8000844>
 80018dc:	18000626 	beq	r3,zero,80018f8 <__umodsi3+0x4c>
 80018e0:	1806d07a 	srli	r3,r3,1
 80018e4:	11400136 	bltu	r2,r5,80018ec <__umodsi3+0x40>
 80018e8:	1145c83a 	sub	r2,r2,r5
 80018ec:	280ad07a 	srli	r5,r5,1
 80018f0:	183ffb1e 	bne	r3,zero,80018e0 <__alt_mem_onchip_memory2_0+0xf8000860>
 80018f4:	f800283a 	ret
 80018f8:	f800283a 	ret
 80018fc:	00c00044 	movi	r3,1
 8001900:	003ff706 	br	80018e0 <__alt_mem_onchip_memory2_0+0xf8000860>

08001904 <__mulsi3>:
 8001904:	0005883a 	mov	r2,zero
 8001908:	20000726 	beq	r4,zero,8001928 <__mulsi3+0x24>
 800190c:	20c0004c 	andi	r3,r4,1
 8001910:	2008d07a 	srli	r4,r4,1
 8001914:	18000126 	beq	r3,zero,800191c <__mulsi3+0x18>
 8001918:	1145883a 	add	r2,r2,r5
 800191c:	294b883a 	add	r5,r5,r5
 8001920:	203ffa1e 	bne	r4,zero,800190c <__alt_mem_onchip_memory2_0+0xf800088c>
 8001924:	f800283a 	ret
 8001928:	f800283a 	ret

0800192c <__divdf3>:
 800192c:	defff004 	addi	sp,sp,-64
 8001930:	dc800815 	stw	r18,32(sp)
 8001934:	2824d53a 	srli	r18,r5,20
 8001938:	dd800c15 	stw	r22,48(sp)
 800193c:	282cd7fa 	srli	r22,r5,31
 8001940:	dc000615 	stw	r16,24(sp)
 8001944:	04000434 	movhi	r16,16
 8001948:	843fffc4 	addi	r16,r16,-1
 800194c:	dfc00f15 	stw	ra,60(sp)
 8001950:	df000e15 	stw	fp,56(sp)
 8001954:	ddc00d15 	stw	r23,52(sp)
 8001958:	dd400b15 	stw	r21,44(sp)
 800195c:	dd000a15 	stw	r20,40(sp)
 8001960:	dcc00915 	stw	r19,36(sp)
 8001964:	dc400715 	stw	r17,28(sp)
 8001968:	9481ffcc 	andi	r18,r18,2047
 800196c:	2c20703a 	and	r16,r5,r16
 8001970:	b2003fcc 	andi	r8,r22,255
 8001974:	90006126 	beq	r18,zero,8001afc <__divdf3+0x1d0>
 8001978:	0081ffc4 	movi	r2,2047
 800197c:	202b883a 	mov	r21,r4
 8001980:	90803726 	beq	r18,r2,8001a60 <__divdf3+0x134>
 8001984:	80800434 	orhi	r2,r16,16
 8001988:	100490fa 	slli	r2,r2,3
 800198c:	2020d77a 	srli	r16,r4,29
 8001990:	202a90fa 	slli	r21,r4,3
 8001994:	94bf0044 	addi	r18,r18,-1023
 8001998:	80a0b03a 	or	r16,r16,r2
 800199c:	0013883a 	mov	r9,zero
 80019a0:	000b883a 	mov	r5,zero
 80019a4:	3806d53a 	srli	r3,r7,20
 80019a8:	382ed7fa 	srli	r23,r7,31
 80019ac:	04400434 	movhi	r17,16
 80019b0:	8c7fffc4 	addi	r17,r17,-1
 80019b4:	18c1ffcc 	andi	r3,r3,2047
 80019b8:	3029883a 	mov	r20,r6
 80019bc:	3c62703a 	and	r17,r7,r17
 80019c0:	bf003fcc 	andi	fp,r23,255
 80019c4:	18006e26 	beq	r3,zero,8001b80 <__divdf3+0x254>
 80019c8:	0081ffc4 	movi	r2,2047
 80019cc:	18806626 	beq	r3,r2,8001b68 <__divdf3+0x23c>
 80019d0:	88800434 	orhi	r2,r17,16
 80019d4:	100490fa 	slli	r2,r2,3
 80019d8:	3022d77a 	srli	r17,r6,29
 80019dc:	302890fa 	slli	r20,r6,3
 80019e0:	18ff0044 	addi	r3,r3,-1023
 80019e4:	88a2b03a 	or	r17,r17,r2
 80019e8:	000f883a 	mov	r7,zero
 80019ec:	b5e6f03a 	xor	r19,r22,r23
 80019f0:	3a4cb03a 	or	r6,r7,r9
 80019f4:	008003c4 	movi	r2,15
 80019f8:	9809883a 	mov	r4,r19
 80019fc:	90c7c83a 	sub	r3,r18,r3
 8001a00:	9cc03fcc 	andi	r19,r19,255
 8001a04:	11809636 	bltu	r2,r6,8001c60 <__divdf3+0x334>
 8001a08:	300c90ba 	slli	r6,r6,2
 8001a0c:	00820034 	movhi	r2,2048
 8001a10:	10868804 	addi	r2,r2,6688
 8001a14:	308d883a 	add	r6,r6,r2
 8001a18:	30800017 	ldw	r2,0(r6)
 8001a1c:	1000683a 	jmp	r2
 8001a20:	08001c60 	cmpeqi	zero,at,113
 8001a24:	08001a98 	cmpnei	zero,at,106
 8001a28:	08001c50 	cmplti	zero,at,113
 8001a2c:	08001a8c 	andi	zero,at,106
 8001a30:	08001c50 	cmplti	zero,at,113
 8001a34:	08001c24 	muli	zero,at,112
 8001a38:	08001c50 	cmplti	zero,at,113
 8001a3c:	08001a8c 	andi	zero,at,106
 8001a40:	08001a98 	cmpnei	zero,at,106
 8001a44:	08001a98 	cmpnei	zero,at,106
 8001a48:	08001c24 	muli	zero,at,112
 8001a4c:	08001a8c 	andi	zero,at,106
 8001a50:	08001a7c 	xorhi	zero,at,105
 8001a54:	08001a7c 	xorhi	zero,at,105
 8001a58:	08001a7c 	xorhi	zero,at,105
 8001a5c:	08001fe8 	cmpgeui	zero,at,127
 8001a60:	2404b03a 	or	r2,r4,r16
 8001a64:	10006c1e 	bne	r2,zero,8001c18 <__divdf3+0x2ec>
 8001a68:	02400204 	movi	r9,8
 8001a6c:	0021883a 	mov	r16,zero
 8001a70:	002b883a 	mov	r21,zero
 8001a74:	01400084 	movi	r5,2
 8001a78:	003fca06 	br	80019a4 <__alt_mem_onchip_memory2_0+0xf8000924>
 8001a7c:	8023883a 	mov	r17,r16
 8001a80:	a829883a 	mov	r20,r21
 8001a84:	4039883a 	mov	fp,r8
 8001a88:	280f883a 	mov	r7,r5
 8001a8c:	00800084 	movi	r2,2
 8001a90:	3881601e 	bne	r7,r2,8002014 <__divdf3+0x6e8>
 8001a94:	e027883a 	mov	r19,fp
 8001a98:	9900004c 	andi	r4,r19,1
 8001a9c:	0081ffc4 	movi	r2,2047
 8001aa0:	0021883a 	mov	r16,zero
 8001aa4:	002b883a 	mov	r21,zero
 8001aa8:	1004953a 	slli	r2,r2,20
 8001aac:	20c03fcc 	andi	r3,r4,255
 8001ab0:	01400434 	movhi	r5,16
 8001ab4:	297fffc4 	addi	r5,r5,-1
 8001ab8:	180697fa 	slli	r3,r3,31
 8001abc:	8160703a 	and	r16,r16,r5
 8001ac0:	80a0b03a 	or	r16,r16,r2
 8001ac4:	80c6b03a 	or	r3,r16,r3
 8001ac8:	a805883a 	mov	r2,r21
 8001acc:	dfc00f17 	ldw	ra,60(sp)
 8001ad0:	df000e17 	ldw	fp,56(sp)
 8001ad4:	ddc00d17 	ldw	r23,52(sp)
 8001ad8:	dd800c17 	ldw	r22,48(sp)
 8001adc:	dd400b17 	ldw	r21,44(sp)
 8001ae0:	dd000a17 	ldw	r20,40(sp)
 8001ae4:	dcc00917 	ldw	r19,36(sp)
 8001ae8:	dc800817 	ldw	r18,32(sp)
 8001aec:	dc400717 	ldw	r17,28(sp)
 8001af0:	dc000617 	ldw	r16,24(sp)
 8001af4:	dec01004 	addi	sp,sp,64
 8001af8:	f800283a 	ret
 8001afc:	2404b03a 	or	r2,r4,r16
 8001b00:	2023883a 	mov	r17,r4
 8001b04:	10003f26 	beq	r2,zero,8001c04 <__divdf3+0x2d8>
 8001b08:	80015e26 	beq	r16,zero,8002084 <__divdf3+0x758>
 8001b0c:	8009883a 	mov	r4,r16
 8001b10:	d9800215 	stw	r6,8(sp)
 8001b14:	d9c00515 	stw	r7,20(sp)
 8001b18:	da000415 	stw	r8,16(sp)
 8001b1c:	80024800 	call	8002480 <__clzsi2>
 8001b20:	d9800217 	ldw	r6,8(sp)
 8001b24:	d9c00517 	ldw	r7,20(sp)
 8001b28:	da000417 	ldw	r8,16(sp)
 8001b2c:	113ffd44 	addi	r4,r2,-11
 8001b30:	00c00704 	movi	r3,28
 8001b34:	19014f16 	blt	r3,r4,8002074 <__divdf3+0x748>
 8001b38:	00c00744 	movi	r3,29
 8001b3c:	157ffe04 	addi	r21,r2,-8
 8001b40:	1907c83a 	sub	r3,r3,r4
 8001b44:	8560983a 	sll	r16,r16,r21
 8001b48:	88c6d83a 	srl	r3,r17,r3
 8001b4c:	8d6a983a 	sll	r21,r17,r21
 8001b50:	1c20b03a 	or	r16,r3,r16
 8001b54:	1080fcc4 	addi	r2,r2,1011
 8001b58:	00a5c83a 	sub	r18,zero,r2
 8001b5c:	0013883a 	mov	r9,zero
 8001b60:	000b883a 	mov	r5,zero
 8001b64:	003f8f06 	br	80019a4 <__alt_mem_onchip_memory2_0+0xf8000924>
 8001b68:	3444b03a 	or	r2,r6,r17
 8001b6c:	1000231e 	bne	r2,zero,8001bfc <__divdf3+0x2d0>
 8001b70:	0023883a 	mov	r17,zero
 8001b74:	0029883a 	mov	r20,zero
 8001b78:	01c00084 	movi	r7,2
 8001b7c:	003f9b06 	br	80019ec <__alt_mem_onchip_memory2_0+0xf800096c>
 8001b80:	3444b03a 	or	r2,r6,r17
 8001b84:	10001926 	beq	r2,zero,8001bec <__divdf3+0x2c0>
 8001b88:	88014b26 	beq	r17,zero,80020b8 <__divdf3+0x78c>
 8001b8c:	8809883a 	mov	r4,r17
 8001b90:	d9400115 	stw	r5,4(sp)
 8001b94:	d9800215 	stw	r6,8(sp)
 8001b98:	da000415 	stw	r8,16(sp)
 8001b9c:	da400315 	stw	r9,12(sp)
 8001ba0:	80024800 	call	8002480 <__clzsi2>
 8001ba4:	d9400117 	ldw	r5,4(sp)
 8001ba8:	d9800217 	ldw	r6,8(sp)
 8001bac:	da000417 	ldw	r8,16(sp)
 8001bb0:	da400317 	ldw	r9,12(sp)
 8001bb4:	113ffd44 	addi	r4,r2,-11
 8001bb8:	00c00704 	movi	r3,28
 8001bbc:	19013a16 	blt	r3,r4,80020a8 <__divdf3+0x77c>
 8001bc0:	00c00744 	movi	r3,29
 8001bc4:	153ffe04 	addi	r20,r2,-8
 8001bc8:	1907c83a 	sub	r3,r3,r4
 8001bcc:	8d22983a 	sll	r17,r17,r20
 8001bd0:	30c6d83a 	srl	r3,r6,r3
 8001bd4:	3528983a 	sll	r20,r6,r20
 8001bd8:	1c62b03a 	or	r17,r3,r17
 8001bdc:	1080fcc4 	addi	r2,r2,1011
 8001be0:	0087c83a 	sub	r3,zero,r2
 8001be4:	000f883a 	mov	r7,zero
 8001be8:	003f8006 	br	80019ec <__alt_mem_onchip_memory2_0+0xf800096c>
 8001bec:	0023883a 	mov	r17,zero
 8001bf0:	0029883a 	mov	r20,zero
 8001bf4:	01c00044 	movi	r7,1
 8001bf8:	003f7c06 	br	80019ec <__alt_mem_onchip_memory2_0+0xf800096c>
 8001bfc:	01c000c4 	movi	r7,3
 8001c00:	003f7a06 	br	80019ec <__alt_mem_onchip_memory2_0+0xf800096c>
 8001c04:	02400104 	movi	r9,4
 8001c08:	0021883a 	mov	r16,zero
 8001c0c:	002b883a 	mov	r21,zero
 8001c10:	01400044 	movi	r5,1
 8001c14:	003f6306 	br	80019a4 <__alt_mem_onchip_memory2_0+0xf8000924>
 8001c18:	02400304 	movi	r9,12
 8001c1c:	014000c4 	movi	r5,3
 8001c20:	003f6006 	br	80019a4 <__alt_mem_onchip_memory2_0+0xf8000924>
 8001c24:	04000434 	movhi	r16,16
 8001c28:	0009883a 	mov	r4,zero
 8001c2c:	843fffc4 	addi	r16,r16,-1
 8001c30:	057fffc4 	movi	r21,-1
 8001c34:	0081ffc4 	movi	r2,2047
 8001c38:	003f9b06 	br	8001aa8 <__alt_mem_onchip_memory2_0+0xf8000a28>
 8001c3c:	00c00044 	movi	r3,1
 8001c40:	1887c83a 	sub	r3,r3,r2
 8001c44:	01000e04 	movi	r4,56
 8001c48:	20c1530e 	bge	r4,r3,8002198 <__divdf3+0x86c>
 8001c4c:	9900004c 	andi	r4,r19,1
 8001c50:	0005883a 	mov	r2,zero
 8001c54:	0021883a 	mov	r16,zero
 8001c58:	002b883a 	mov	r21,zero
 8001c5c:	003f9206 	br	8001aa8 <__alt_mem_onchip_memory2_0+0xf8000a28>
 8001c60:	8c012e36 	bltu	r17,r16,800211c <__divdf3+0x7f0>
 8001c64:	84412c26 	beq	r16,r17,8002118 <__divdf3+0x7ec>
 8001c68:	a82f883a 	mov	r23,r21
 8001c6c:	18ffffc4 	addi	r3,r3,-1
 8001c70:	002b883a 	mov	r21,zero
 8001c74:	a004d63a 	srli	r2,r20,24
 8001c78:	8822923a 	slli	r17,r17,8
 8001c7c:	a028923a 	slli	r20,r20,8
 8001c80:	8009883a 	mov	r4,r16
 8001c84:	88acb03a 	or	r22,r17,r2
 8001c88:	dd000015 	stw	r20,0(sp)
 8001c8c:	b028d43a 	srli	r20,r22,16
 8001c90:	d8c00215 	stw	r3,8(sp)
 8001c94:	b4bfffcc 	andi	r18,r22,65535
 8001c98:	a00b883a 	mov	r5,r20
 8001c9c:	80018480 	call	8001848 <__udivsi3>
 8001ca0:	100b883a 	mov	r5,r2
 8001ca4:	9009883a 	mov	r4,r18
 8001ca8:	1023883a 	mov	r17,r2
 8001cac:	80019040 	call	8001904 <__mulsi3>
 8001cb0:	8009883a 	mov	r4,r16
 8001cb4:	a00b883a 	mov	r5,r20
 8001cb8:	1039883a 	mov	fp,r2
 8001cbc:	80018ac0 	call	80018ac <__umodsi3>
 8001cc0:	1004943a 	slli	r2,r2,16
 8001cc4:	b808d43a 	srli	r4,r23,16
 8001cc8:	d8c00217 	ldw	r3,8(sp)
 8001ccc:	2084b03a 	or	r2,r4,r2
 8001cd0:	1700062e 	bgeu	r2,fp,8001cec <__divdf3+0x3c0>
 8001cd4:	1585883a 	add	r2,r2,r22
 8001cd8:	893fffc4 	addi	r4,r17,-1
 8001cdc:	15811d36 	bltu	r2,r22,8002154 <__divdf3+0x828>
 8001ce0:	17011c2e 	bgeu	r2,fp,8002154 <__divdf3+0x828>
 8001ce4:	8c7fff84 	addi	r17,r17,-2
 8001ce8:	1585883a 	add	r2,r2,r22
 8001cec:	1739c83a 	sub	fp,r2,fp
 8001cf0:	a00b883a 	mov	r5,r20
 8001cf4:	e009883a 	mov	r4,fp
 8001cf8:	d8c00215 	stw	r3,8(sp)
 8001cfc:	80018480 	call	8001848 <__udivsi3>
 8001d00:	100b883a 	mov	r5,r2
 8001d04:	9009883a 	mov	r4,r18
 8001d08:	1021883a 	mov	r16,r2
 8001d0c:	80019040 	call	8001904 <__mulsi3>
 8001d10:	a00b883a 	mov	r5,r20
 8001d14:	e009883a 	mov	r4,fp
 8001d18:	d8800415 	stw	r2,16(sp)
 8001d1c:	80018ac0 	call	80018ac <__umodsi3>
 8001d20:	1004943a 	slli	r2,r2,16
 8001d24:	da000417 	ldw	r8,16(sp)
 8001d28:	bdffffcc 	andi	r23,r23,65535
 8001d2c:	b884b03a 	or	r2,r23,r2
 8001d30:	d8c00217 	ldw	r3,8(sp)
 8001d34:	1200062e 	bgeu	r2,r8,8001d50 <__divdf3+0x424>
 8001d38:	1585883a 	add	r2,r2,r22
 8001d3c:	813fffc4 	addi	r4,r16,-1
 8001d40:	15810236 	bltu	r2,r22,800214c <__divdf3+0x820>
 8001d44:	1201012e 	bgeu	r2,r8,800214c <__divdf3+0x820>
 8001d48:	843fff84 	addi	r16,r16,-2
 8001d4c:	1585883a 	add	r2,r2,r22
 8001d50:	8822943a 	slli	r17,r17,16
 8001d54:	d9800017 	ldw	r6,0(sp)
 8001d58:	1211c83a 	sub	r8,r2,r8
 8001d5c:	8c22b03a 	or	r17,r17,r16
 8001d60:	373fffcc 	andi	fp,r6,65535
 8001d64:	8abfffcc 	andi	r10,r17,65535
 8001d68:	8820d43a 	srli	r16,r17,16
 8001d6c:	5009883a 	mov	r4,r10
 8001d70:	e00b883a 	mov	r5,fp
 8001d74:	302ed43a 	srli	r23,r6,16
 8001d78:	d8c00215 	stw	r3,8(sp)
 8001d7c:	da000415 	stw	r8,16(sp)
 8001d80:	da800115 	stw	r10,4(sp)
 8001d84:	80019040 	call	8001904 <__mulsi3>
 8001d88:	800b883a 	mov	r5,r16
 8001d8c:	e009883a 	mov	r4,fp
 8001d90:	d8800515 	stw	r2,20(sp)
 8001d94:	80019040 	call	8001904 <__mulsi3>
 8001d98:	8009883a 	mov	r4,r16
 8001d9c:	b80b883a 	mov	r5,r23
 8001da0:	d8800315 	stw	r2,12(sp)
 8001da4:	80019040 	call	8001904 <__mulsi3>
 8001da8:	da800117 	ldw	r10,4(sp)
 8001dac:	b80b883a 	mov	r5,r23
 8001db0:	1021883a 	mov	r16,r2
 8001db4:	5009883a 	mov	r4,r10
 8001db8:	80019040 	call	8001904 <__mulsi3>
 8001dbc:	d9c00517 	ldw	r7,20(sp)
 8001dc0:	da400317 	ldw	r9,12(sp)
 8001dc4:	d8c00217 	ldw	r3,8(sp)
 8001dc8:	3808d43a 	srli	r4,r7,16
 8001dcc:	1245883a 	add	r2,r2,r9
 8001dd0:	da000417 	ldw	r8,16(sp)
 8001dd4:	2085883a 	add	r2,r4,r2
 8001dd8:	1240022e 	bgeu	r2,r9,8001de4 <__divdf3+0x4b8>
 8001ddc:	01000074 	movhi	r4,1
 8001de0:	8121883a 	add	r16,r16,r4
 8001de4:	1008d43a 	srli	r4,r2,16
 8001de8:	1004943a 	slli	r2,r2,16
 8001dec:	39ffffcc 	andi	r7,r7,65535
 8001df0:	2409883a 	add	r4,r4,r16
 8001df4:	11c5883a 	add	r2,r2,r7
 8001df8:	4100bb36 	bltu	r8,r4,80020e8 <__divdf3+0x7bc>
 8001dfc:	4100d726 	beq	r8,r4,800215c <__divdf3+0x830>
 8001e00:	4109c83a 	sub	r4,r8,r4
 8001e04:	a8a1c83a 	sub	r16,r21,r2
 8001e08:	ac2b803a 	cmpltu	r21,r21,r16
 8001e0c:	256bc83a 	sub	r21,r4,r21
 8001e10:	b540d926 	beq	r22,r21,8002178 <__divdf3+0x84c>
 8001e14:	a00b883a 	mov	r5,r20
 8001e18:	a809883a 	mov	r4,r21
 8001e1c:	d8c00215 	stw	r3,8(sp)
 8001e20:	80018480 	call	8001848 <__udivsi3>
 8001e24:	100b883a 	mov	r5,r2
 8001e28:	9009883a 	mov	r4,r18
 8001e2c:	d8800515 	stw	r2,20(sp)
 8001e30:	80019040 	call	8001904 <__mulsi3>
 8001e34:	a809883a 	mov	r4,r21
 8001e38:	a00b883a 	mov	r5,r20
 8001e3c:	d8800415 	stw	r2,16(sp)
 8001e40:	80018ac0 	call	80018ac <__umodsi3>
 8001e44:	1004943a 	slli	r2,r2,16
 8001e48:	8008d43a 	srli	r4,r16,16
 8001e4c:	da000417 	ldw	r8,16(sp)
 8001e50:	d8c00217 	ldw	r3,8(sp)
 8001e54:	2084b03a 	or	r2,r4,r2
 8001e58:	d9c00517 	ldw	r7,20(sp)
 8001e5c:	1200062e 	bgeu	r2,r8,8001e78 <__divdf3+0x54c>
 8001e60:	1585883a 	add	r2,r2,r22
 8001e64:	393fffc4 	addi	r4,r7,-1
 8001e68:	1580c536 	bltu	r2,r22,8002180 <__divdf3+0x854>
 8001e6c:	1200c42e 	bgeu	r2,r8,8002180 <__divdf3+0x854>
 8001e70:	39ffff84 	addi	r7,r7,-2
 8001e74:	1585883a 	add	r2,r2,r22
 8001e78:	122bc83a 	sub	r21,r2,r8
 8001e7c:	a00b883a 	mov	r5,r20
 8001e80:	a809883a 	mov	r4,r21
 8001e84:	d8c00215 	stw	r3,8(sp)
 8001e88:	d9c00515 	stw	r7,20(sp)
 8001e8c:	80018480 	call	8001848 <__udivsi3>
 8001e90:	9009883a 	mov	r4,r18
 8001e94:	100b883a 	mov	r5,r2
 8001e98:	d8800415 	stw	r2,16(sp)
 8001e9c:	80019040 	call	8001904 <__mulsi3>
 8001ea0:	a809883a 	mov	r4,r21
 8001ea4:	a00b883a 	mov	r5,r20
 8001ea8:	1025883a 	mov	r18,r2
 8001eac:	80018ac0 	call	80018ac <__umodsi3>
 8001eb0:	1004943a 	slli	r2,r2,16
 8001eb4:	813fffcc 	andi	r4,r16,65535
 8001eb8:	d8c00217 	ldw	r3,8(sp)
 8001ebc:	20a0b03a 	or	r16,r4,r2
 8001ec0:	d9c00517 	ldw	r7,20(sp)
 8001ec4:	da000417 	ldw	r8,16(sp)
 8001ec8:	8480062e 	bgeu	r16,r18,8001ee4 <__divdf3+0x5b8>
 8001ecc:	85a1883a 	add	r16,r16,r22
 8001ed0:	40bfffc4 	addi	r2,r8,-1
 8001ed4:	8580ac36 	bltu	r16,r22,8002188 <__divdf3+0x85c>
 8001ed8:	8480ab2e 	bgeu	r16,r18,8002188 <__divdf3+0x85c>
 8001edc:	423fff84 	addi	r8,r8,-2
 8001ee0:	85a1883a 	add	r16,r16,r22
 8001ee4:	3804943a 	slli	r2,r7,16
 8001ee8:	84a1c83a 	sub	r16,r16,r18
 8001eec:	e009883a 	mov	r4,fp
 8001ef0:	1228b03a 	or	r20,r2,r8
 8001ef4:	a1ffffcc 	andi	r7,r20,65535
 8001ef8:	a024d43a 	srli	r18,r20,16
 8001efc:	380b883a 	mov	r5,r7
 8001f00:	d8c00215 	stw	r3,8(sp)
 8001f04:	d9c00515 	stw	r7,20(sp)
 8001f08:	80019040 	call	8001904 <__mulsi3>
 8001f0c:	900b883a 	mov	r5,r18
 8001f10:	e009883a 	mov	r4,fp
 8001f14:	102b883a 	mov	r21,r2
 8001f18:	80019040 	call	8001904 <__mulsi3>
 8001f1c:	900b883a 	mov	r5,r18
 8001f20:	b809883a 	mov	r4,r23
 8001f24:	1039883a 	mov	fp,r2
 8001f28:	80019040 	call	8001904 <__mulsi3>
 8001f2c:	d9c00517 	ldw	r7,20(sp)
 8001f30:	b80b883a 	mov	r5,r23
 8001f34:	1025883a 	mov	r18,r2
 8001f38:	3809883a 	mov	r4,r7
 8001f3c:	80019040 	call	8001904 <__mulsi3>
 8001f40:	a808d43a 	srli	r4,r21,16
 8001f44:	1705883a 	add	r2,r2,fp
 8001f48:	d8c00217 	ldw	r3,8(sp)
 8001f4c:	2085883a 	add	r2,r4,r2
 8001f50:	1700022e 	bgeu	r2,fp,8001f5c <__divdf3+0x630>
 8001f54:	01000074 	movhi	r4,1
 8001f58:	9125883a 	add	r18,r18,r4
 8001f5c:	1008d43a 	srli	r4,r2,16
 8001f60:	1004943a 	slli	r2,r2,16
 8001f64:	ad7fffcc 	andi	r21,r21,65535
 8001f68:	2489883a 	add	r4,r4,r18
 8001f6c:	1545883a 	add	r2,r2,r21
 8001f70:	81003836 	bltu	r16,r4,8002054 <__divdf3+0x728>
 8001f74:	81003626 	beq	r16,r4,8002050 <__divdf3+0x724>
 8001f78:	a5000054 	ori	r20,r20,1
 8001f7c:	1880ffc4 	addi	r2,r3,1023
 8001f80:	00bf2e0e 	bge	zero,r2,8001c3c <__alt_mem_onchip_memory2_0+0xf8000bbc>
 8001f84:	a10001cc 	andi	r4,r20,7
 8001f88:	20000726 	beq	r4,zero,8001fa8 <__divdf3+0x67c>
 8001f8c:	a10003cc 	andi	r4,r20,15
 8001f90:	01400104 	movi	r5,4
 8001f94:	21400426 	beq	r4,r5,8001fa8 <__divdf3+0x67c>
 8001f98:	a149883a 	add	r4,r20,r5
 8001f9c:	2529803a 	cmpltu	r20,r4,r20
 8001fa0:	8d23883a 	add	r17,r17,r20
 8001fa4:	2029883a 	mov	r20,r4
 8001fa8:	8900402c 	andhi	r4,r17,256
 8001fac:	20000426 	beq	r4,zero,8001fc0 <__divdf3+0x694>
 8001fb0:	18810004 	addi	r2,r3,1024
 8001fb4:	00ffc034 	movhi	r3,65280
 8001fb8:	18ffffc4 	addi	r3,r3,-1
 8001fbc:	88e2703a 	and	r17,r17,r3
 8001fc0:	00c1ff84 	movi	r3,2046
 8001fc4:	18beb416 	blt	r3,r2,8001a98 <__alt_mem_onchip_memory2_0+0xf8000a18>
 8001fc8:	a028d0fa 	srli	r20,r20,3
 8001fcc:	882a977a 	slli	r21,r17,29
 8001fd0:	8820927a 	slli	r16,r17,9
 8001fd4:	1081ffcc 	andi	r2,r2,2047
 8001fd8:	ad2ab03a 	or	r21,r21,r20
 8001fdc:	8020d33a 	srli	r16,r16,12
 8001fe0:	9900004c 	andi	r4,r19,1
 8001fe4:	003eb006 	br	8001aa8 <__alt_mem_onchip_memory2_0+0xf8000a28>
 8001fe8:	8080022c 	andhi	r2,r16,8
 8001fec:	10001226 	beq	r2,zero,8002038 <__divdf3+0x70c>
 8001ff0:	8880022c 	andhi	r2,r17,8
 8001ff4:	1000101e 	bne	r2,zero,8002038 <__divdf3+0x70c>
 8001ff8:	00800434 	movhi	r2,16
 8001ffc:	8c000234 	orhi	r16,r17,8
 8002000:	10bfffc4 	addi	r2,r2,-1
 8002004:	b809883a 	mov	r4,r23
 8002008:	80a0703a 	and	r16,r16,r2
 800200c:	a02b883a 	mov	r21,r20
 8002010:	003f0806 	br	8001c34 <__alt_mem_onchip_memory2_0+0xf8000bb4>
 8002014:	008000c4 	movi	r2,3
 8002018:	3880b126 	beq	r7,r2,80022e0 <__divdf3+0x9b4>
 800201c:	00800044 	movi	r2,1
 8002020:	38805b1e 	bne	r7,r2,8002190 <__divdf3+0x864>
 8002024:	e009883a 	mov	r4,fp
 8002028:	0005883a 	mov	r2,zero
 800202c:	0021883a 	mov	r16,zero
 8002030:	002b883a 	mov	r21,zero
 8002034:	003e9c06 	br	8001aa8 <__alt_mem_onchip_memory2_0+0xf8000a28>
 8002038:	00800434 	movhi	r2,16
 800203c:	84000234 	orhi	r16,r16,8
 8002040:	10bfffc4 	addi	r2,r2,-1
 8002044:	b009883a 	mov	r4,r22
 8002048:	80a0703a 	and	r16,r16,r2
 800204c:	003ef906 	br	8001c34 <__alt_mem_onchip_memory2_0+0xf8000bb4>
 8002050:	103fca26 	beq	r2,zero,8001f7c <__alt_mem_onchip_memory2_0+0xf8000efc>
 8002054:	b421883a 	add	r16,r22,r16
 8002058:	a17fffc4 	addi	r5,r20,-1
 800205c:	8580422e 	bgeu	r16,r22,8002168 <__divdf3+0x83c>
 8002060:	2829883a 	mov	r20,r5
 8002064:	813fc41e 	bne	r16,r4,8001f78 <__alt_mem_onchip_memory2_0+0xf8000ef8>
 8002068:	d9800017 	ldw	r6,0(sp)
 800206c:	30bfc21e 	bne	r6,r2,8001f78 <__alt_mem_onchip_memory2_0+0xf8000ef8>
 8002070:	003fc206 	br	8001f7c <__alt_mem_onchip_memory2_0+0xf8000efc>
 8002074:	143ff604 	addi	r16,r2,-40
 8002078:	8c20983a 	sll	r16,r17,r16
 800207c:	002b883a 	mov	r21,zero
 8002080:	003eb406 	br	8001b54 <__alt_mem_onchip_memory2_0+0xf8000ad4>
 8002084:	d9800215 	stw	r6,8(sp)
 8002088:	d9c00515 	stw	r7,20(sp)
 800208c:	da000415 	stw	r8,16(sp)
 8002090:	80024800 	call	8002480 <__clzsi2>
 8002094:	10800804 	addi	r2,r2,32
 8002098:	da000417 	ldw	r8,16(sp)
 800209c:	d9c00517 	ldw	r7,20(sp)
 80020a0:	d9800217 	ldw	r6,8(sp)
 80020a4:	003ea106 	br	8001b2c <__alt_mem_onchip_memory2_0+0xf8000aac>
 80020a8:	147ff604 	addi	r17,r2,-40
 80020ac:	3462983a 	sll	r17,r6,r17
 80020b0:	0029883a 	mov	r20,zero
 80020b4:	003ec906 	br	8001bdc <__alt_mem_onchip_memory2_0+0xf8000b5c>
 80020b8:	3009883a 	mov	r4,r6
 80020bc:	d9400115 	stw	r5,4(sp)
 80020c0:	d9800215 	stw	r6,8(sp)
 80020c4:	da000415 	stw	r8,16(sp)
 80020c8:	da400315 	stw	r9,12(sp)
 80020cc:	80024800 	call	8002480 <__clzsi2>
 80020d0:	10800804 	addi	r2,r2,32
 80020d4:	da400317 	ldw	r9,12(sp)
 80020d8:	da000417 	ldw	r8,16(sp)
 80020dc:	d9800217 	ldw	r6,8(sp)
 80020e0:	d9400117 	ldw	r5,4(sp)
 80020e4:	003eb306 	br	8001bb4 <__alt_mem_onchip_memory2_0+0xf8000b34>
 80020e8:	d9800017 	ldw	r6,0(sp)
 80020ec:	a9ab883a 	add	r21,r21,r6
 80020f0:	a98b803a 	cmpltu	r5,r21,r6
 80020f4:	2d8b883a 	add	r5,r5,r22
 80020f8:	2a11883a 	add	r8,r5,r8
 80020fc:	897fffc4 	addi	r5,r17,-1
 8002100:	b2000c2e 	bgeu	r22,r8,8002134 <__divdf3+0x808>
 8002104:	41003f36 	bltu	r8,r4,8002204 <__divdf3+0x8d8>
 8002108:	22006c26 	beq	r4,r8,80022bc <__divdf3+0x990>
 800210c:	4109c83a 	sub	r4,r8,r4
 8002110:	2823883a 	mov	r17,r5
 8002114:	003f3b06 	br	8001e04 <__alt_mem_onchip_memory2_0+0xf8000d84>
 8002118:	ad3ed336 	bltu	r21,r20,8001c68 <__alt_mem_onchip_memory2_0+0xf8000be8>
 800211c:	a804d07a 	srli	r2,r21,1
 8002120:	802e97fa 	slli	r23,r16,31
 8002124:	a82a97fa 	slli	r21,r21,31
 8002128:	8020d07a 	srli	r16,r16,1
 800212c:	b8aeb03a 	or	r23,r23,r2
 8002130:	003ed006 	br	8001c74 <__alt_mem_onchip_memory2_0+0xf8000bf4>
 8002134:	b23ff51e 	bne	r22,r8,800210c <__alt_mem_onchip_memory2_0+0xf800108c>
 8002138:	d9800017 	ldw	r6,0(sp)
 800213c:	a9bff12e 	bgeu	r21,r6,8002104 <__alt_mem_onchip_memory2_0+0xf8001084>
 8002140:	b109c83a 	sub	r4,r22,r4
 8002144:	2823883a 	mov	r17,r5
 8002148:	003f2e06 	br	8001e04 <__alt_mem_onchip_memory2_0+0xf8000d84>
 800214c:	2021883a 	mov	r16,r4
 8002150:	003eff06 	br	8001d50 <__alt_mem_onchip_memory2_0+0xf8000cd0>
 8002154:	2023883a 	mov	r17,r4
 8002158:	003ee406 	br	8001cec <__alt_mem_onchip_memory2_0+0xf8000c6c>
 800215c:	a8bfe236 	bltu	r21,r2,80020e8 <__alt_mem_onchip_memory2_0+0xf8001068>
 8002160:	0009883a 	mov	r4,zero
 8002164:	003f2706 	br	8001e04 <__alt_mem_onchip_memory2_0+0xf8000d84>
 8002168:	81002d36 	bltu	r16,r4,8002220 <__divdf3+0x8f4>
 800216c:	24005626 	beq	r4,r16,80022c8 <__divdf3+0x99c>
 8002170:	2829883a 	mov	r20,r5
 8002174:	003f8006 	br	8001f78 <__alt_mem_onchip_memory2_0+0xf8000ef8>
 8002178:	053fffc4 	movi	r20,-1
 800217c:	003f7f06 	br	8001f7c <__alt_mem_onchip_memory2_0+0xf8000efc>
 8002180:	200f883a 	mov	r7,r4
 8002184:	003f3c06 	br	8001e78 <__alt_mem_onchip_memory2_0+0xf8000df8>
 8002188:	1011883a 	mov	r8,r2
 800218c:	003f5506 	br	8001ee4 <__alt_mem_onchip_memory2_0+0xf8000e64>
 8002190:	e027883a 	mov	r19,fp
 8002194:	003f7906 	br	8001f7c <__alt_mem_onchip_memory2_0+0xf8000efc>
 8002198:	010007c4 	movi	r4,31
 800219c:	20c02816 	blt	r4,r3,8002240 <__divdf3+0x914>
 80021a0:	00800804 	movi	r2,32
 80021a4:	10c5c83a 	sub	r2,r2,r3
 80021a8:	888a983a 	sll	r5,r17,r2
 80021ac:	a0c8d83a 	srl	r4,r20,r3
 80021b0:	a084983a 	sll	r2,r20,r2
 80021b4:	88e2d83a 	srl	r17,r17,r3
 80021b8:	2906b03a 	or	r3,r5,r4
 80021bc:	1004c03a 	cmpne	r2,r2,zero
 80021c0:	1886b03a 	or	r3,r3,r2
 80021c4:	188001cc 	andi	r2,r3,7
 80021c8:	10000726 	beq	r2,zero,80021e8 <__divdf3+0x8bc>
 80021cc:	188003cc 	andi	r2,r3,15
 80021d0:	01000104 	movi	r4,4
 80021d4:	11000426 	beq	r2,r4,80021e8 <__divdf3+0x8bc>
 80021d8:	1805883a 	mov	r2,r3
 80021dc:	10c00104 	addi	r3,r2,4
 80021e0:	1885803a 	cmpltu	r2,r3,r2
 80021e4:	88a3883a 	add	r17,r17,r2
 80021e8:	8880202c 	andhi	r2,r17,128
 80021ec:	10002926 	beq	r2,zero,8002294 <__divdf3+0x968>
 80021f0:	9900004c 	andi	r4,r19,1
 80021f4:	00800044 	movi	r2,1
 80021f8:	0021883a 	mov	r16,zero
 80021fc:	002b883a 	mov	r21,zero
 8002200:	003e2906 	br	8001aa8 <__alt_mem_onchip_memory2_0+0xf8000a28>
 8002204:	d9800017 	ldw	r6,0(sp)
 8002208:	8c7fff84 	addi	r17,r17,-2
 800220c:	a9ab883a 	add	r21,r21,r6
 8002210:	a98b803a 	cmpltu	r5,r21,r6
 8002214:	2d8b883a 	add	r5,r5,r22
 8002218:	2a11883a 	add	r8,r5,r8
 800221c:	003ef806 	br	8001e00 <__alt_mem_onchip_memory2_0+0xf8000d80>
 8002220:	d9800017 	ldw	r6,0(sp)
 8002224:	318f883a 	add	r7,r6,r6
 8002228:	398b803a 	cmpltu	r5,r7,r6
 800222c:	2d8d883a 	add	r6,r5,r22
 8002230:	81a1883a 	add	r16,r16,r6
 8002234:	a17fff84 	addi	r5,r20,-2
 8002238:	d9c00015 	stw	r7,0(sp)
 800223c:	003f8806 	br	8002060 <__alt_mem_onchip_memory2_0+0xf8000fe0>
 8002240:	013ff844 	movi	r4,-31
 8002244:	2085c83a 	sub	r2,r4,r2
 8002248:	8888d83a 	srl	r4,r17,r2
 800224c:	00800804 	movi	r2,32
 8002250:	18802126 	beq	r3,r2,80022d8 <__divdf3+0x9ac>
 8002254:	04001004 	movi	r16,64
 8002258:	80c7c83a 	sub	r3,r16,r3
 800225c:	88e0983a 	sll	r16,r17,r3
 8002260:	8504b03a 	or	r2,r16,r20
 8002264:	1004c03a 	cmpne	r2,r2,zero
 8002268:	2084b03a 	or	r2,r4,r2
 800226c:	144001cc 	andi	r17,r2,7
 8002270:	88000d1e 	bne	r17,zero,80022a8 <__divdf3+0x97c>
 8002274:	0021883a 	mov	r16,zero
 8002278:	102ad0fa 	srli	r21,r2,3
 800227c:	9900004c 	andi	r4,r19,1
 8002280:	0005883a 	mov	r2,zero
 8002284:	ac6ab03a 	or	r21,r21,r17
 8002288:	003e0706 	br	8001aa8 <__alt_mem_onchip_memory2_0+0xf8000a28>
 800228c:	1007883a 	mov	r3,r2
 8002290:	0023883a 	mov	r17,zero
 8002294:	8820927a 	slli	r16,r17,9
 8002298:	1805883a 	mov	r2,r3
 800229c:	8822977a 	slli	r17,r17,29
 80022a0:	8020d33a 	srli	r16,r16,12
 80022a4:	003ff406 	br	8002278 <__alt_mem_onchip_memory2_0+0xf80011f8>
 80022a8:	10c003cc 	andi	r3,r2,15
 80022ac:	01000104 	movi	r4,4
 80022b0:	193ff626 	beq	r3,r4,800228c <__alt_mem_onchip_memory2_0+0xf800120c>
 80022b4:	0023883a 	mov	r17,zero
 80022b8:	003fc806 	br	80021dc <__alt_mem_onchip_memory2_0+0xf800115c>
 80022bc:	a8bfd136 	bltu	r21,r2,8002204 <__alt_mem_onchip_memory2_0+0xf8001184>
 80022c0:	2823883a 	mov	r17,r5
 80022c4:	003fa606 	br	8002160 <__alt_mem_onchip_memory2_0+0xf80010e0>
 80022c8:	d9800017 	ldw	r6,0(sp)
 80022cc:	30bfd436 	bltu	r6,r2,8002220 <__alt_mem_onchip_memory2_0+0xf80011a0>
 80022d0:	2829883a 	mov	r20,r5
 80022d4:	003f6406 	br	8002068 <__alt_mem_onchip_memory2_0+0xf8000fe8>
 80022d8:	0021883a 	mov	r16,zero
 80022dc:	003fe006 	br	8002260 <__alt_mem_onchip_memory2_0+0xf80011e0>
 80022e0:	00800434 	movhi	r2,16
 80022e4:	8c000234 	orhi	r16,r17,8
 80022e8:	10bfffc4 	addi	r2,r2,-1
 80022ec:	e009883a 	mov	r4,fp
 80022f0:	80a0703a 	and	r16,r16,r2
 80022f4:	a02b883a 	mov	r21,r20
 80022f8:	003e4e06 	br	8001c34 <__alt_mem_onchip_memory2_0+0xf8000bb4>

080022fc <__floatsidf>:
 80022fc:	defffd04 	addi	sp,sp,-12
 8002300:	dfc00215 	stw	ra,8(sp)
 8002304:	dc400115 	stw	r17,4(sp)
 8002308:	dc000015 	stw	r16,0(sp)
 800230c:	20002b26 	beq	r4,zero,80023bc <__floatsidf+0xc0>
 8002310:	2023883a 	mov	r17,r4
 8002314:	2020d7fa 	srli	r16,r4,31
 8002318:	20002d16 	blt	r4,zero,80023d0 <__floatsidf+0xd4>
 800231c:	8809883a 	mov	r4,r17
 8002320:	80024800 	call	8002480 <__clzsi2>
 8002324:	01410784 	movi	r5,1054
 8002328:	288bc83a 	sub	r5,r5,r2
 800232c:	01010cc4 	movi	r4,1075
 8002330:	2149c83a 	sub	r4,r4,r5
 8002334:	00c007c4 	movi	r3,31
 8002338:	1900160e 	bge	r3,r4,8002394 <__floatsidf+0x98>
 800233c:	00c104c4 	movi	r3,1043
 8002340:	1947c83a 	sub	r3,r3,r5
 8002344:	88c6983a 	sll	r3,r17,r3
 8002348:	00800434 	movhi	r2,16
 800234c:	10bfffc4 	addi	r2,r2,-1
 8002350:	1886703a 	and	r3,r3,r2
 8002354:	2941ffcc 	andi	r5,r5,2047
 8002358:	800d883a 	mov	r6,r16
 800235c:	0005883a 	mov	r2,zero
 8002360:	280a953a 	slli	r5,r5,20
 8002364:	31803fcc 	andi	r6,r6,255
 8002368:	01000434 	movhi	r4,16
 800236c:	300c97fa 	slli	r6,r6,31
 8002370:	213fffc4 	addi	r4,r4,-1
 8002374:	1906703a 	and	r3,r3,r4
 8002378:	1946b03a 	or	r3,r3,r5
 800237c:	1986b03a 	or	r3,r3,r6
 8002380:	dfc00217 	ldw	ra,8(sp)
 8002384:	dc400117 	ldw	r17,4(sp)
 8002388:	dc000017 	ldw	r16,0(sp)
 800238c:	dec00304 	addi	sp,sp,12
 8002390:	f800283a 	ret
 8002394:	00c002c4 	movi	r3,11
 8002398:	1887c83a 	sub	r3,r3,r2
 800239c:	88c6d83a 	srl	r3,r17,r3
 80023a0:	8904983a 	sll	r2,r17,r4
 80023a4:	01000434 	movhi	r4,16
 80023a8:	213fffc4 	addi	r4,r4,-1
 80023ac:	2941ffcc 	andi	r5,r5,2047
 80023b0:	1906703a 	and	r3,r3,r4
 80023b4:	800d883a 	mov	r6,r16
 80023b8:	003fe906 	br	8002360 <__alt_mem_onchip_memory2_0+0xf80012e0>
 80023bc:	000d883a 	mov	r6,zero
 80023c0:	000b883a 	mov	r5,zero
 80023c4:	0007883a 	mov	r3,zero
 80023c8:	0005883a 	mov	r2,zero
 80023cc:	003fe406 	br	8002360 <__alt_mem_onchip_memory2_0+0xf80012e0>
 80023d0:	0123c83a 	sub	r17,zero,r4
 80023d4:	003fd106 	br	800231c <__alt_mem_onchip_memory2_0+0xf800129c>

080023d8 <__floatunsidf>:
 80023d8:	defffe04 	addi	sp,sp,-8
 80023dc:	dc000015 	stw	r16,0(sp)
 80023e0:	dfc00115 	stw	ra,4(sp)
 80023e4:	2021883a 	mov	r16,r4
 80023e8:	20002226 	beq	r4,zero,8002474 <__floatunsidf+0x9c>
 80023ec:	80024800 	call	8002480 <__clzsi2>
 80023f0:	01010784 	movi	r4,1054
 80023f4:	2089c83a 	sub	r4,r4,r2
 80023f8:	01810cc4 	movi	r6,1075
 80023fc:	310dc83a 	sub	r6,r6,r4
 8002400:	00c007c4 	movi	r3,31
 8002404:	1980120e 	bge	r3,r6,8002450 <__floatunsidf+0x78>
 8002408:	00c104c4 	movi	r3,1043
 800240c:	1907c83a 	sub	r3,r3,r4
 8002410:	80ca983a 	sll	r5,r16,r3
 8002414:	00800434 	movhi	r2,16
 8002418:	10bfffc4 	addi	r2,r2,-1
 800241c:	2101ffcc 	andi	r4,r4,2047
 8002420:	0021883a 	mov	r16,zero
 8002424:	288a703a 	and	r5,r5,r2
 8002428:	2008953a 	slli	r4,r4,20
 800242c:	00c00434 	movhi	r3,16
 8002430:	18ffffc4 	addi	r3,r3,-1
 8002434:	28c6703a 	and	r3,r5,r3
 8002438:	8005883a 	mov	r2,r16
 800243c:	1906b03a 	or	r3,r3,r4
 8002440:	dfc00117 	ldw	ra,4(sp)
 8002444:	dc000017 	ldw	r16,0(sp)
 8002448:	dec00204 	addi	sp,sp,8
 800244c:	f800283a 	ret
 8002450:	00c002c4 	movi	r3,11
 8002454:	188bc83a 	sub	r5,r3,r2
 8002458:	814ad83a 	srl	r5,r16,r5
 800245c:	00c00434 	movhi	r3,16
 8002460:	18ffffc4 	addi	r3,r3,-1
 8002464:	81a0983a 	sll	r16,r16,r6
 8002468:	2101ffcc 	andi	r4,r4,2047
 800246c:	28ca703a 	and	r5,r5,r3
 8002470:	003fed06 	br	8002428 <__alt_mem_onchip_memory2_0+0xf80013a8>
 8002474:	0009883a 	mov	r4,zero
 8002478:	000b883a 	mov	r5,zero
 800247c:	003fea06 	br	8002428 <__alt_mem_onchip_memory2_0+0xf80013a8>

08002480 <__clzsi2>:
 8002480:	00bfffd4 	movui	r2,65535
 8002484:	11000536 	bltu	r2,r4,800249c <__clzsi2+0x1c>
 8002488:	00803fc4 	movi	r2,255
 800248c:	11000f36 	bltu	r2,r4,80024cc <__clzsi2+0x4c>
 8002490:	00800804 	movi	r2,32
 8002494:	0007883a 	mov	r3,zero
 8002498:	00000506 	br	80024b0 <__clzsi2+0x30>
 800249c:	00804034 	movhi	r2,256
 80024a0:	10bfffc4 	addi	r2,r2,-1
 80024a4:	11000c2e 	bgeu	r2,r4,80024d8 <__clzsi2+0x58>
 80024a8:	00800204 	movi	r2,8
 80024ac:	00c00604 	movi	r3,24
 80024b0:	20c8d83a 	srl	r4,r4,r3
 80024b4:	00c200b4 	movhi	r3,2050
 80024b8:	18e96644 	addi	r3,r3,-23143
 80024bc:	1909883a 	add	r4,r3,r4
 80024c0:	20c00003 	ldbu	r3,0(r4)
 80024c4:	10c5c83a 	sub	r2,r2,r3
 80024c8:	f800283a 	ret
 80024cc:	00800604 	movi	r2,24
 80024d0:	00c00204 	movi	r3,8
 80024d4:	003ff606 	br	80024b0 <__alt_mem_onchip_memory2_0+0xf8001430>
 80024d8:	00800404 	movi	r2,16
 80024dc:	1007883a 	mov	r3,r2
 80024e0:	003ff306 	br	80024b0 <__alt_mem_onchip_memory2_0+0xf8001430>

080024e4 <clock>:
 80024e4:	008200b4 	movhi	r2,2050
 80024e8:	10b37704 	addi	r2,r2,-12836
 80024ec:	11000017 	ldw	r4,0(r2)
 80024f0:	defffb04 	addi	sp,sp,-20
 80024f4:	d80b883a 	mov	r5,sp
 80024f8:	dfc00415 	stw	ra,16(sp)
 80024fc:	80027940 	call	8002794 <_times_r>
 8002500:	00ffffc4 	movi	r3,-1
 8002504:	10c00726 	beq	r2,r3,8002524 <clock+0x40>
 8002508:	d8c00017 	ldw	r3,0(sp)
 800250c:	d8800117 	ldw	r2,4(sp)
 8002510:	1885883a 	add	r2,r3,r2
 8002514:	d8c00217 	ldw	r3,8(sp)
 8002518:	10c7883a 	add	r3,r2,r3
 800251c:	d8800317 	ldw	r2,12(sp)
 8002520:	1885883a 	add	r2,r3,r2
 8002524:	dfc00417 	ldw	ra,16(sp)
 8002528:	dec00504 	addi	sp,sp,20
 800252c:	f800283a 	ret

08002530 <_printf_r>:
 8002530:	defffd04 	addi	sp,sp,-12
 8002534:	2805883a 	mov	r2,r5
 8002538:	dfc00015 	stw	ra,0(sp)
 800253c:	d9800115 	stw	r6,4(sp)
 8002540:	d9c00215 	stw	r7,8(sp)
 8002544:	21400217 	ldw	r5,8(r4)
 8002548:	d9c00104 	addi	r7,sp,4
 800254c:	100d883a 	mov	r6,r2
 8002550:	800279c0 	call	800279c <___vfprintf_internal_r>
 8002554:	dfc00017 	ldw	ra,0(sp)
 8002558:	dec00304 	addi	sp,sp,12
 800255c:	f800283a 	ret

08002560 <printf>:
 8002560:	defffc04 	addi	sp,sp,-16
 8002564:	dfc00015 	stw	ra,0(sp)
 8002568:	d9400115 	stw	r5,4(sp)
 800256c:	d9800215 	stw	r6,8(sp)
 8002570:	d9c00315 	stw	r7,12(sp)
 8002574:	008200b4 	movhi	r2,2050
 8002578:	10b37704 	addi	r2,r2,-12836
 800257c:	10800017 	ldw	r2,0(r2)
 8002580:	200b883a 	mov	r5,r4
 8002584:	d9800104 	addi	r6,sp,4
 8002588:	11000217 	ldw	r4,8(r2)
 800258c:	8004a780 	call	8004a78 <__vfprintf_internal>
 8002590:	dfc00017 	ldw	ra,0(sp)
 8002594:	dec00404 	addi	sp,sp,16
 8002598:	f800283a 	ret

0800259c <_putchar_r>:
 800259c:	21800217 	ldw	r6,8(r4)
 80025a0:	800b55c1 	jmpi	800b55c <_putc_r>

080025a4 <putchar>:
 80025a4:	008200b4 	movhi	r2,2050
 80025a8:	10b37704 	addi	r2,r2,-12836
 80025ac:	200b883a 	mov	r5,r4
 80025b0:	11000017 	ldw	r4,0(r2)
 80025b4:	21800217 	ldw	r6,8(r4)
 80025b8:	800b55c1 	jmpi	800b55c <_putc_r>

080025bc <_puts_r>:
 80025bc:	defff604 	addi	sp,sp,-40
 80025c0:	dc000715 	stw	r16,28(sp)
 80025c4:	2021883a 	mov	r16,r4
 80025c8:	2809883a 	mov	r4,r5
 80025cc:	dc400815 	stw	r17,32(sp)
 80025d0:	dfc00915 	stw	ra,36(sp)
 80025d4:	2823883a 	mov	r17,r5
 80025d8:	80026fc0 	call	80026fc <strlen>
 80025dc:	10c00044 	addi	r3,r2,1
 80025e0:	d8800115 	stw	r2,4(sp)
 80025e4:	008200b4 	movhi	r2,2050
 80025e8:	10a9a804 	addi	r2,r2,-22880
 80025ec:	d8800215 	stw	r2,8(sp)
 80025f0:	00800044 	movi	r2,1
 80025f4:	d8800315 	stw	r2,12(sp)
 80025f8:	00800084 	movi	r2,2
 80025fc:	dc400015 	stw	r17,0(sp)
 8002600:	d8c00615 	stw	r3,24(sp)
 8002604:	dec00415 	stw	sp,16(sp)
 8002608:	d8800515 	stw	r2,20(sp)
 800260c:	80000226 	beq	r16,zero,8002618 <_puts_r+0x5c>
 8002610:	80800e17 	ldw	r2,56(r16)
 8002614:	10001426 	beq	r2,zero,8002668 <_puts_r+0xac>
 8002618:	81400217 	ldw	r5,8(r16)
 800261c:	2880030b 	ldhu	r2,12(r5)
 8002620:	10c8000c 	andi	r3,r2,8192
 8002624:	1800061e 	bne	r3,zero,8002640 <_puts_r+0x84>
 8002628:	29001917 	ldw	r4,100(r5)
 800262c:	00f7ffc4 	movi	r3,-8193
 8002630:	10880014 	ori	r2,r2,8192
 8002634:	20c6703a 	and	r3,r4,r3
 8002638:	2880030d 	sth	r2,12(r5)
 800263c:	28c01915 	stw	r3,100(r5)
 8002640:	d9800404 	addi	r6,sp,16
 8002644:	8009883a 	mov	r4,r16
 8002648:	8008cac0 	call	8008cac <__sfvwrite_r>
 800264c:	1000091e 	bne	r2,zero,8002674 <_puts_r+0xb8>
 8002650:	00800284 	movi	r2,10
 8002654:	dfc00917 	ldw	ra,36(sp)
 8002658:	dc400817 	ldw	r17,32(sp)
 800265c:	dc000717 	ldw	r16,28(sp)
 8002660:	dec00a04 	addi	sp,sp,40
 8002664:	f800283a 	ret
 8002668:	8009883a 	mov	r4,r16
 800266c:	80085b80 	call	80085b8 <__sinit>
 8002670:	003fe906 	br	8002618 <__alt_mem_onchip_memory2_0+0xf8001598>
 8002674:	00bfffc4 	movi	r2,-1
 8002678:	003ff606 	br	8002654 <__alt_mem_onchip_memory2_0+0xf80015d4>

0800267c <puts>:
 800267c:	008200b4 	movhi	r2,2050
 8002680:	10b37704 	addi	r2,r2,-12836
 8002684:	200b883a 	mov	r5,r4
 8002688:	11000017 	ldw	r4,0(r2)
 800268c:	80025bc1 	jmpi	80025bc <_puts_r>

08002690 <scanf>:
 8002690:	defffc04 	addi	sp,sp,-16
 8002694:	dfc00015 	stw	ra,0(sp)
 8002698:	d9400115 	stw	r5,4(sp)
 800269c:	d9800215 	stw	r6,8(sp)
 80026a0:	d9c00315 	stw	r7,12(sp)
 80026a4:	008200b4 	movhi	r2,2050
 80026a8:	10b37704 	addi	r2,r2,-12836
 80026ac:	200d883a 	mov	r6,r4
 80026b0:	11000017 	ldw	r4,0(r2)
 80026b4:	d9c00104 	addi	r7,sp,4
 80026b8:	21400117 	ldw	r5,4(r4)
 80026bc:	80065600 	call	8006560 <_vfscanf_r>
 80026c0:	dfc00017 	ldw	ra,0(sp)
 80026c4:	dec00404 	addi	sp,sp,16
 80026c8:	f800283a 	ret

080026cc <_scanf_r>:
 80026cc:	defffd04 	addi	sp,sp,-12
 80026d0:	2805883a 	mov	r2,r5
 80026d4:	dfc00015 	stw	ra,0(sp)
 80026d8:	d9800115 	stw	r6,4(sp)
 80026dc:	d9c00215 	stw	r7,8(sp)
 80026e0:	21400117 	ldw	r5,4(r4)
 80026e4:	d9c00104 	addi	r7,sp,4
 80026e8:	100d883a 	mov	r6,r2
 80026ec:	80065600 	call	8006560 <_vfscanf_r>
 80026f0:	dfc00017 	ldw	ra,0(sp)
 80026f4:	dec00304 	addi	sp,sp,12
 80026f8:	f800283a 	ret

080026fc <strlen>:
 80026fc:	208000cc 	andi	r2,r4,3
 8002700:	10002026 	beq	r2,zero,8002784 <strlen+0x88>
 8002704:	20800007 	ldb	r2,0(r4)
 8002708:	10002026 	beq	r2,zero,800278c <strlen+0x90>
 800270c:	2005883a 	mov	r2,r4
 8002710:	00000206 	br	800271c <strlen+0x20>
 8002714:	10c00007 	ldb	r3,0(r2)
 8002718:	18001826 	beq	r3,zero,800277c <strlen+0x80>
 800271c:	10800044 	addi	r2,r2,1
 8002720:	10c000cc 	andi	r3,r2,3
 8002724:	183ffb1e 	bne	r3,zero,8002714 <__alt_mem_onchip_memory2_0+0xf8001694>
 8002728:	10c00017 	ldw	r3,0(r2)
 800272c:	01ffbff4 	movhi	r7,65279
 8002730:	39ffbfc4 	addi	r7,r7,-257
 8002734:	00ca303a 	nor	r5,zero,r3
 8002738:	01a02074 	movhi	r6,32897
 800273c:	19c7883a 	add	r3,r3,r7
 8002740:	31a02004 	addi	r6,r6,-32640
 8002744:	1946703a 	and	r3,r3,r5
 8002748:	1986703a 	and	r3,r3,r6
 800274c:	1800091e 	bne	r3,zero,8002774 <strlen+0x78>
 8002750:	10800104 	addi	r2,r2,4
 8002754:	10c00017 	ldw	r3,0(r2)
 8002758:	19cb883a 	add	r5,r3,r7
 800275c:	00c6303a 	nor	r3,zero,r3
 8002760:	28c6703a 	and	r3,r5,r3
 8002764:	1986703a 	and	r3,r3,r6
 8002768:	183ff926 	beq	r3,zero,8002750 <__alt_mem_onchip_memory2_0+0xf80016d0>
 800276c:	00000106 	br	8002774 <strlen+0x78>
 8002770:	10800044 	addi	r2,r2,1
 8002774:	10c00007 	ldb	r3,0(r2)
 8002778:	183ffd1e 	bne	r3,zero,8002770 <__alt_mem_onchip_memory2_0+0xf80016f0>
 800277c:	1105c83a 	sub	r2,r2,r4
 8002780:	f800283a 	ret
 8002784:	2005883a 	mov	r2,r4
 8002788:	003fe706 	br	8002728 <__alt_mem_onchip_memory2_0+0xf80016a8>
 800278c:	0005883a 	mov	r2,zero
 8002790:	f800283a 	ret

08002794 <_times_r>:
 8002794:	2809883a 	mov	r4,r5
 8002798:	80182f01 	jmpi	80182f0 <times>

0800279c <___vfprintf_internal_r>:
 800279c:	deffb804 	addi	sp,sp,-288
 80027a0:	dfc04715 	stw	ra,284(sp)
 80027a4:	ddc04515 	stw	r23,276(sp)
 80027a8:	dd404315 	stw	r21,268(sp)
 80027ac:	d9002d15 	stw	r4,180(sp)
 80027b0:	282f883a 	mov	r23,r5
 80027b4:	302b883a 	mov	r21,r6
 80027b8:	d9c02e15 	stw	r7,184(sp)
 80027bc:	df004615 	stw	fp,280(sp)
 80027c0:	dd804415 	stw	r22,272(sp)
 80027c4:	dd004215 	stw	r20,264(sp)
 80027c8:	dcc04115 	stw	r19,260(sp)
 80027cc:	dc804015 	stw	r18,256(sp)
 80027d0:	dc403f15 	stw	r17,252(sp)
 80027d4:	dc003e15 	stw	r16,248(sp)
 80027d8:	80093d80 	call	80093d8 <_localeconv_r>
 80027dc:	10800017 	ldw	r2,0(r2)
 80027e0:	1009883a 	mov	r4,r2
 80027e4:	d8803415 	stw	r2,208(sp)
 80027e8:	80026fc0 	call	80026fc <strlen>
 80027ec:	d8803715 	stw	r2,220(sp)
 80027f0:	d8802d17 	ldw	r2,180(sp)
 80027f4:	10000226 	beq	r2,zero,8002800 <___vfprintf_internal_r+0x64>
 80027f8:	10800e17 	ldw	r2,56(r2)
 80027fc:	1000fb26 	beq	r2,zero,8002bec <___vfprintf_internal_r+0x450>
 8002800:	b880030b 	ldhu	r2,12(r23)
 8002804:	10c8000c 	andi	r3,r2,8192
 8002808:	1800061e 	bne	r3,zero,8002824 <___vfprintf_internal_r+0x88>
 800280c:	b9001917 	ldw	r4,100(r23)
 8002810:	00f7ffc4 	movi	r3,-8193
 8002814:	10880014 	ori	r2,r2,8192
 8002818:	20c6703a 	and	r3,r4,r3
 800281c:	b880030d 	sth	r2,12(r23)
 8002820:	b8c01915 	stw	r3,100(r23)
 8002824:	10c0020c 	andi	r3,r2,8
 8002828:	1800c326 	beq	r3,zero,8002b38 <___vfprintf_internal_r+0x39c>
 800282c:	b8c00417 	ldw	r3,16(r23)
 8002830:	1800c126 	beq	r3,zero,8002b38 <___vfprintf_internal_r+0x39c>
 8002834:	1080068c 	andi	r2,r2,26
 8002838:	00c00284 	movi	r3,10
 800283c:	10c0c626 	beq	r2,r3,8002b58 <___vfprintf_internal_r+0x3bc>
 8002840:	d8c00404 	addi	r3,sp,16
 8002844:	050200b4 	movhi	r20,2050
 8002848:	d9001e04 	addi	r4,sp,120
 800284c:	a529b984 	addi	r20,r20,-22810
 8002850:	d8c01e15 	stw	r3,120(sp)
 8002854:	d8002015 	stw	zero,128(sp)
 8002858:	d8001f15 	stw	zero,124(sp)
 800285c:	d8003315 	stw	zero,204(sp)
 8002860:	d8003615 	stw	zero,216(sp)
 8002864:	d8003815 	stw	zero,224(sp)
 8002868:	1811883a 	mov	r8,r3
 800286c:	d8003915 	stw	zero,228(sp)
 8002870:	d8003a15 	stw	zero,232(sp)
 8002874:	d8002f15 	stw	zero,188(sp)
 8002878:	d9002815 	stw	r4,160(sp)
 800287c:	a8800007 	ldb	r2,0(r21)
 8002880:	10028b26 	beq	r2,zero,80032b0 <___vfprintf_internal_r+0xb14>
 8002884:	00c00944 	movi	r3,37
 8002888:	a823883a 	mov	r17,r21
 800288c:	10c0021e 	bne	r2,r3,8002898 <___vfprintf_internal_r+0xfc>
 8002890:	00001406 	br	80028e4 <___vfprintf_internal_r+0x148>
 8002894:	10c00326 	beq	r2,r3,80028a4 <___vfprintf_internal_r+0x108>
 8002898:	8c400044 	addi	r17,r17,1
 800289c:	88800007 	ldb	r2,0(r17)
 80028a0:	103ffc1e 	bne	r2,zero,8002894 <__alt_mem_onchip_memory2_0+0xf8001814>
 80028a4:	8d61c83a 	sub	r16,r17,r21
 80028a8:	80000e26 	beq	r16,zero,80028e4 <___vfprintf_internal_r+0x148>
 80028ac:	d8c02017 	ldw	r3,128(sp)
 80028b0:	d8801f17 	ldw	r2,124(sp)
 80028b4:	45400015 	stw	r21,0(r8)
 80028b8:	1c07883a 	add	r3,r3,r16
 80028bc:	10800044 	addi	r2,r2,1
 80028c0:	d8c02015 	stw	r3,128(sp)
 80028c4:	44000115 	stw	r16,4(r8)
 80028c8:	d8801f15 	stw	r2,124(sp)
 80028cc:	00c001c4 	movi	r3,7
 80028d0:	1880a916 	blt	r3,r2,8002b78 <___vfprintf_internal_r+0x3dc>
 80028d4:	42000204 	addi	r8,r8,8
 80028d8:	d9402f17 	ldw	r5,188(sp)
 80028dc:	2c0b883a 	add	r5,r5,r16
 80028e0:	d9402f15 	stw	r5,188(sp)
 80028e4:	88800007 	ldb	r2,0(r17)
 80028e8:	1000aa26 	beq	r2,zero,8002b94 <___vfprintf_internal_r+0x3f8>
 80028ec:	8d400044 	addi	r21,r17,1
 80028f0:	8c400047 	ldb	r17,1(r17)
 80028f4:	0021883a 	mov	r16,zero
 80028f8:	00bfffc4 	movi	r2,-1
 80028fc:	0025883a 	mov	r18,zero
 8002900:	dc002905 	stb	r16,164(sp)
 8002904:	d8002785 	stb	zero,158(sp)
 8002908:	d8002b05 	stb	zero,172(sp)
 800290c:	d8802a15 	stw	r2,168(sp)
 8002910:	d8003115 	stw	zero,196(sp)
 8002914:	04c01604 	movi	r19,88
 8002918:	05800244 	movi	r22,9
 800291c:	9021883a 	mov	r16,r18
 8002920:	4039883a 	mov	fp,r8
 8002924:	ad400044 	addi	r21,r21,1
 8002928:	88bff804 	addi	r2,r17,-32
 800292c:	98833236 	bltu	r19,r2,80035f8 <___vfprintf_internal_r+0xe5c>
 8002930:	100490ba 	slli	r2,r2,2
 8002934:	00c20034 	movhi	r3,2048
 8002938:	18ca5204 	addi	r3,r3,10568
 800293c:	10c5883a 	add	r2,r2,r3
 8002940:	10800017 	ldw	r2,0(r2)
 8002944:	1000683a 	jmp	r2
 8002948:	080034f0 	cmpltui	zero,at,211
 800294c:	080035f8 	rdprs	zero,at,215
 8002950:	080035f8 	rdprs	zero,at,215
 8002954:	08003510 	cmplti	zero,at,212
 8002958:	080035f8 	rdprs	zero,at,215
 800295c:	080035f8 	rdprs	zero,at,215
 8002960:	080035f8 	rdprs	zero,at,215
 8002964:	080035f8 	rdprs	zero,at,215
 8002968:	080035f8 	rdprs	zero,at,215
 800296c:	080035f8 	rdprs	zero,at,215
 8002970:	08002bf8 	rdprs	zero,at,175
 8002974:	08003400 	call	800340 <__alt_mem_sdram-0x77ffcc0>
 8002978:	080035f8 	rdprs	zero,at,215
 800297c:	08002abc 	xorhi	zero,at,170
 8002980:	08002c1c 	xori	zero,at,176
 8002984:	080035f8 	rdprs	zero,at,215
 8002988:	08002c6c 	andhi	zero,at,177
 800298c:	08002c78 	rdprs	zero,at,177
 8002990:	08002c78 	rdprs	zero,at,177
 8002994:	08002c78 	rdprs	zero,at,177
 8002998:	08002c78 	rdprs	zero,at,177
 800299c:	08002c78 	rdprs	zero,at,177
 80029a0:	08002c78 	rdprs	zero,at,177
 80029a4:	08002c78 	rdprs	zero,at,177
 80029a8:	08002c78 	rdprs	zero,at,177
 80029ac:	08002c78 	rdprs	zero,at,177
 80029b0:	080035f8 	rdprs	zero,at,215
 80029b4:	080035f8 	rdprs	zero,at,215
 80029b8:	080035f8 	rdprs	zero,at,215
 80029bc:	080035f8 	rdprs	zero,at,215
 80029c0:	080035f8 	rdprs	zero,at,215
 80029c4:	080035f8 	rdprs	zero,at,215
 80029c8:	080035f8 	rdprs	zero,at,215
 80029cc:	080035f8 	rdprs	zero,at,215
 80029d0:	080035f8 	rdprs	zero,at,215
 80029d4:	080035f8 	rdprs	zero,at,215
 80029d8:	08002cb4 	orhi	zero,at,178
 80029dc:	08002d7c 	xorhi	zero,at,181
 80029e0:	080035f8 	rdprs	zero,at,215
 80029e4:	08002d7c 	xorhi	zero,at,181
 80029e8:	080035f8 	rdprs	zero,at,215
 80029ec:	080035f8 	rdprs	zero,at,215
 80029f0:	080035f8 	rdprs	zero,at,215
 80029f4:	080035f8 	rdprs	zero,at,215
 80029f8:	08002e28 	cmpgeui	zero,at,184
 80029fc:	080035f8 	rdprs	zero,at,215
 8002a00:	080035f8 	rdprs	zero,at,215
 8002a04:	08002e34 	orhi	zero,at,184
 8002a08:	080035f8 	rdprs	zero,at,215
 8002a0c:	080035f8 	rdprs	zero,at,215
 8002a10:	080035f8 	rdprs	zero,at,215
 8002a14:	080035f8 	rdprs	zero,at,215
 8002a18:	080035f8 	rdprs	zero,at,215
 8002a1c:	080032b8 	rdprs	zero,at,202
 8002a20:	080035f8 	rdprs	zero,at,215
 8002a24:	080035f8 	rdprs	zero,at,215
 8002a28:	08003324 	muli	zero,at,204
 8002a2c:	080035f8 	rdprs	zero,at,215
 8002a30:	080035f8 	rdprs	zero,at,215
 8002a34:	080035f8 	rdprs	zero,at,215
 8002a38:	080035f8 	rdprs	zero,at,215
 8002a3c:	080035f8 	rdprs	zero,at,215
 8002a40:	080035f8 	rdprs	zero,at,215
 8002a44:	080035f8 	rdprs	zero,at,215
 8002a48:	080035f8 	rdprs	zero,at,215
 8002a4c:	080035f8 	rdprs	zero,at,215
 8002a50:	080035f8 	rdprs	zero,at,215
 8002a54:	0800359c 	xori	zero,at,214
 8002a58:	0800351c 	xori	zero,at,212
 8002a5c:	08002d7c 	xorhi	zero,at,181
 8002a60:	08002d7c 	xorhi	zero,at,181
 8002a64:	08002d7c 	xorhi	zero,at,181
 8002a68:	0800353c 	xorhi	zero,at,212
 8002a6c:	0800351c 	xori	zero,at,212
 8002a70:	080035f8 	rdprs	zero,at,215
 8002a74:	080035f8 	rdprs	zero,at,215
 8002a78:	08003548 	cmpgei	zero,at,213
 8002a7c:	080035f8 	rdprs	zero,at,215
 8002a80:	0800355c 	xori	zero,at,213
 8002a84:	080033e0 	cmpeqi	zero,at,207
 8002a88:	08002ac8 	cmpgei	zero,at,171
 8002a8c:	08003418 	cmpnei	zero,at,208
 8002a90:	080035f8 	rdprs	zero,at,215
 8002a94:	08003424 	muli	zero,at,208
 8002a98:	080035f8 	rdprs	zero,at,215
 8002a9c:	08003488 	cmpgei	zero,at,210
 8002aa0:	080035f8 	rdprs	zero,at,215
 8002aa4:	080035f8 	rdprs	zero,at,215
 8002aa8:	080034a8 	cmpgeui	zero,at,210
 8002aac:	d8c03117 	ldw	r3,196(sp)
 8002ab0:	d8802e15 	stw	r2,184(sp)
 8002ab4:	00c7c83a 	sub	r3,zero,r3
 8002ab8:	d8c03115 	stw	r3,196(sp)
 8002abc:	84000114 	ori	r16,r16,4
 8002ac0:	ac400007 	ldb	r17,0(r21)
 8002ac4:	003f9706 	br	8002924 <__alt_mem_onchip_memory2_0+0xf80018a4>
 8002ac8:	00800c04 	movi	r2,48
 8002acc:	d8802705 	stb	r2,156(sp)
 8002ad0:	00801e04 	movi	r2,120
 8002ad4:	d8802745 	stb	r2,157(sp)
 8002ad8:	d9002a17 	ldw	r4,168(sp)
 8002adc:	d8802e17 	ldw	r2,184(sp)
 8002ae0:	d8002785 	stb	zero,158(sp)
 8002ae4:	e011883a 	mov	r8,fp
 8002ae8:	10c00104 	addi	r3,r2,4
 8002aec:	14c00017 	ldw	r19,0(r2)
 8002af0:	002d883a 	mov	r22,zero
 8002af4:	80800094 	ori	r2,r16,2
 8002af8:	2002ca16 	blt	r4,zero,8003624 <___vfprintf_internal_r+0xe88>
 8002afc:	00bfdfc4 	movi	r2,-129
 8002b00:	80a4703a 	and	r18,r16,r2
 8002b04:	d8c02e15 	stw	r3,184(sp)
 8002b08:	94800094 	ori	r18,r18,2
 8002b0c:	9802b41e 	bne	r19,zero,80035e0 <___vfprintf_internal_r+0xe44>
 8002b10:	014200b4 	movhi	r5,2050
 8002b14:	2969b204 	addi	r5,r5,-22840
 8002b18:	d9403915 	stw	r5,228(sp)
 8002b1c:	04401e04 	movi	r17,120
 8002b20:	d8802a17 	ldw	r2,168(sp)
 8002b24:	0039883a 	mov	fp,zero
 8002b28:	1001fa26 	beq	r2,zero,8003314 <___vfprintf_internal_r+0xb78>
 8002b2c:	0027883a 	mov	r19,zero
 8002b30:	002d883a 	mov	r22,zero
 8002b34:	00021906 	br	800339c <___vfprintf_internal_r+0xc00>
 8002b38:	d9002d17 	ldw	r4,180(sp)
 8002b3c:	b80b883a 	mov	r5,r23
 8002b40:	80065ac0 	call	80065ac <__swsetup_r>
 8002b44:	1005dc1e 	bne	r2,zero,80042b8 <___vfprintf_internal_r+0x1b1c>
 8002b48:	b880030b 	ldhu	r2,12(r23)
 8002b4c:	00c00284 	movi	r3,10
 8002b50:	1080068c 	andi	r2,r2,26
 8002b54:	10ff3a1e 	bne	r2,r3,8002840 <__alt_mem_onchip_memory2_0+0xf80017c0>
 8002b58:	b880038f 	ldh	r2,14(r23)
 8002b5c:	103f3816 	blt	r2,zero,8002840 <__alt_mem_onchip_memory2_0+0xf80017c0>
 8002b60:	d9c02e17 	ldw	r7,184(sp)
 8002b64:	d9002d17 	ldw	r4,180(sp)
 8002b68:	a80d883a 	mov	r6,r21
 8002b6c:	b80b883a 	mov	r5,r23
 8002b70:	8004a940 	call	8004a94 <__sbprintf>
 8002b74:	00001106 	br	8002bbc <___vfprintf_internal_r+0x420>
 8002b78:	d9002d17 	ldw	r4,180(sp)
 8002b7c:	d9801e04 	addi	r6,sp,120
 8002b80:	b80b883a 	mov	r5,r23
 8002b84:	8010b580 	call	8010b58 <__sprint_r>
 8002b88:	1000081e 	bne	r2,zero,8002bac <___vfprintf_internal_r+0x410>
 8002b8c:	da000404 	addi	r8,sp,16
 8002b90:	003f5106 	br	80028d8 <__alt_mem_onchip_memory2_0+0xf8001858>
 8002b94:	d8802017 	ldw	r2,128(sp)
 8002b98:	10000426 	beq	r2,zero,8002bac <___vfprintf_internal_r+0x410>
 8002b9c:	d9002d17 	ldw	r4,180(sp)
 8002ba0:	d9801e04 	addi	r6,sp,120
 8002ba4:	b80b883a 	mov	r5,r23
 8002ba8:	8010b580 	call	8010b58 <__sprint_r>
 8002bac:	b880030b 	ldhu	r2,12(r23)
 8002bb0:	1080100c 	andi	r2,r2,64
 8002bb4:	1005c01e 	bne	r2,zero,80042b8 <___vfprintf_internal_r+0x1b1c>
 8002bb8:	d8802f17 	ldw	r2,188(sp)
 8002bbc:	dfc04717 	ldw	ra,284(sp)
 8002bc0:	df004617 	ldw	fp,280(sp)
 8002bc4:	ddc04517 	ldw	r23,276(sp)
 8002bc8:	dd804417 	ldw	r22,272(sp)
 8002bcc:	dd404317 	ldw	r21,268(sp)
 8002bd0:	dd004217 	ldw	r20,264(sp)
 8002bd4:	dcc04117 	ldw	r19,260(sp)
 8002bd8:	dc804017 	ldw	r18,256(sp)
 8002bdc:	dc403f17 	ldw	r17,252(sp)
 8002be0:	dc003e17 	ldw	r16,248(sp)
 8002be4:	dec04804 	addi	sp,sp,288
 8002be8:	f800283a 	ret
 8002bec:	d9002d17 	ldw	r4,180(sp)
 8002bf0:	80085b80 	call	80085b8 <__sinit>
 8002bf4:	003f0206 	br	8002800 <__alt_mem_onchip_memory2_0+0xf8001780>
 8002bf8:	d9002e17 	ldw	r4,184(sp)
 8002bfc:	d9402e17 	ldw	r5,184(sp)
 8002c00:	21000017 	ldw	r4,0(r4)
 8002c04:	28800104 	addi	r2,r5,4
 8002c08:	d9003115 	stw	r4,196(sp)
 8002c0c:	203fa716 	blt	r4,zero,8002aac <__alt_mem_onchip_memory2_0+0xf8001a2c>
 8002c10:	d8802e15 	stw	r2,184(sp)
 8002c14:	ac400007 	ldb	r17,0(r21)
 8002c18:	003f4206 	br	8002924 <__alt_mem_onchip_memory2_0+0xf80018a4>
 8002c1c:	ac400007 	ldb	r17,0(r21)
 8002c20:	01000a84 	movi	r4,42
 8002c24:	a8c00044 	addi	r3,r21,1
 8002c28:	89075826 	beq	r17,r4,800498c <___vfprintf_internal_r+0x21f0>
 8002c2c:	8cbff404 	addi	r18,r17,-48
 8002c30:	b486ae36 	bltu	r22,r18,80046ec <___vfprintf_internal_r+0x1f50>
 8002c34:	0009883a 	mov	r4,zero
 8002c38:	1823883a 	mov	r17,r3
 8002c3c:	01400284 	movi	r5,10
 8002c40:	80019040 	call	8001904 <__mulsi3>
 8002c44:	88c00007 	ldb	r3,0(r17)
 8002c48:	1489883a 	add	r4,r2,r18
 8002c4c:	8d400044 	addi	r21,r17,1
 8002c50:	1cbff404 	addi	r18,r3,-48
 8002c54:	a823883a 	mov	r17,r21
 8002c58:	b4bff82e 	bgeu	r22,r18,8002c3c <__alt_mem_onchip_memory2_0+0xf8001bbc>
 8002c5c:	1823883a 	mov	r17,r3
 8002c60:	2005f616 	blt	r4,zero,800443c <___vfprintf_internal_r+0x1ca0>
 8002c64:	d9002a15 	stw	r4,168(sp)
 8002c68:	003f2f06 	br	8002928 <__alt_mem_onchip_memory2_0+0xf80018a8>
 8002c6c:	84002014 	ori	r16,r16,128
 8002c70:	ac400007 	ldb	r17,0(r21)
 8002c74:	003f2b06 	br	8002924 <__alt_mem_onchip_memory2_0+0xf80018a4>
 8002c78:	8cbff404 	addi	r18,r17,-48
 8002c7c:	d8003115 	stw	zero,196(sp)
 8002c80:	0009883a 	mov	r4,zero
 8002c84:	a823883a 	mov	r17,r21
 8002c88:	01400284 	movi	r5,10
 8002c8c:	80019040 	call	8001904 <__mulsi3>
 8002c90:	88c00007 	ldb	r3,0(r17)
 8002c94:	9089883a 	add	r4,r18,r2
 8002c98:	ad400044 	addi	r21,r21,1
 8002c9c:	1cbff404 	addi	r18,r3,-48
 8002ca0:	a823883a 	mov	r17,r21
 8002ca4:	b4bff82e 	bgeu	r22,r18,8002c88 <__alt_mem_onchip_memory2_0+0xf8001c08>
 8002ca8:	1823883a 	mov	r17,r3
 8002cac:	d9003115 	stw	r4,196(sp)
 8002cb0:	003f1d06 	br	8002928 <__alt_mem_onchip_memory2_0+0xf80018a8>
 8002cb4:	8025883a 	mov	r18,r16
 8002cb8:	dc002903 	ldbu	r16,164(sp)
 8002cbc:	e011883a 	mov	r8,fp
 8002cc0:	84003fcc 	andi	r16,r16,255
 8002cc4:	8007531e 	bne	r16,zero,8004a14 <___vfprintf_internal_r+0x2278>
 8002cc8:	94800414 	ori	r18,r18,16
 8002ccc:	9080080c 	andi	r2,r18,32
 8002cd0:	1003a326 	beq	r2,zero,8003b60 <___vfprintf_internal_r+0x13c4>
 8002cd4:	d9002e17 	ldw	r4,184(sp)
 8002cd8:	20800117 	ldw	r2,4(r4)
 8002cdc:	24c00017 	ldw	r19,0(r4)
 8002ce0:	21000204 	addi	r4,r4,8
 8002ce4:	d9002e15 	stw	r4,184(sp)
 8002ce8:	102d883a 	mov	r22,r2
 8002cec:	10047316 	blt	r2,zero,8003ebc <___vfprintf_internal_r+0x1720>
 8002cf0:	d9002a17 	ldw	r4,168(sp)
 8002cf4:	df002783 	ldbu	fp,158(sp)
 8002cf8:	2003e416 	blt	r4,zero,8003c8c <___vfprintf_internal_r+0x14f0>
 8002cfc:	00ffdfc4 	movi	r3,-129
 8002d00:	9d84b03a 	or	r2,r19,r22
 8002d04:	90e4703a 	and	r18,r18,r3
 8002d08:	10018026 	beq	r2,zero,800330c <___vfprintf_internal_r+0xb70>
 8002d0c:	b003ab26 	beq	r22,zero,8003bbc <___vfprintf_internal_r+0x1420>
 8002d10:	dc402915 	stw	r17,164(sp)
 8002d14:	dc001e04 	addi	r16,sp,120
 8002d18:	b023883a 	mov	r17,r22
 8002d1c:	402d883a 	mov	r22,r8
 8002d20:	9809883a 	mov	r4,r19
 8002d24:	880b883a 	mov	r5,r17
 8002d28:	01800284 	movi	r6,10
 8002d2c:	000f883a 	mov	r7,zero
 8002d30:	80154080 	call	8015408 <__umoddi3>
 8002d34:	10800c04 	addi	r2,r2,48
 8002d38:	843fffc4 	addi	r16,r16,-1
 8002d3c:	9809883a 	mov	r4,r19
 8002d40:	880b883a 	mov	r5,r17
 8002d44:	80800005 	stb	r2,0(r16)
 8002d48:	01800284 	movi	r6,10
 8002d4c:	000f883a 	mov	r7,zero
 8002d50:	8014e0c0 	call	8014e0c <__udivdi3>
 8002d54:	1027883a 	mov	r19,r2
 8002d58:	10c4b03a 	or	r2,r2,r3
 8002d5c:	1823883a 	mov	r17,r3
 8002d60:	103fef1e 	bne	r2,zero,8002d20 <__alt_mem_onchip_memory2_0+0xf8001ca0>
 8002d64:	d8c02817 	ldw	r3,160(sp)
 8002d68:	dc402917 	ldw	r17,164(sp)
 8002d6c:	b011883a 	mov	r8,r22
 8002d70:	1c07c83a 	sub	r3,r3,r16
 8002d74:	d8c02b15 	stw	r3,172(sp)
 8002d78:	00005f06 	br	8002ef8 <___vfprintf_internal_r+0x75c>
 8002d7c:	8025883a 	mov	r18,r16
 8002d80:	dc002903 	ldbu	r16,164(sp)
 8002d84:	e011883a 	mov	r8,fp
 8002d88:	84003fcc 	andi	r16,r16,255
 8002d8c:	80071e1e 	bne	r16,zero,8004a08 <___vfprintf_internal_r+0x226c>
 8002d90:	9080020c 	andi	r2,r18,8
 8002d94:	1004af26 	beq	r2,zero,8004054 <___vfprintf_internal_r+0x18b8>
 8002d98:	d9002e17 	ldw	r4,184(sp)
 8002d9c:	d9402e17 	ldw	r5,184(sp)
 8002da0:	d8802e17 	ldw	r2,184(sp)
 8002da4:	21000017 	ldw	r4,0(r4)
 8002da8:	29400117 	ldw	r5,4(r5)
 8002dac:	10800204 	addi	r2,r2,8
 8002db0:	d9003615 	stw	r4,216(sp)
 8002db4:	d9403815 	stw	r5,224(sp)
 8002db8:	d8802e15 	stw	r2,184(sp)
 8002dbc:	d9003617 	ldw	r4,216(sp)
 8002dc0:	d9403817 	ldw	r5,224(sp)
 8002dc4:	da003d15 	stw	r8,244(sp)
 8002dc8:	04000044 	movi	r16,1
 8002dcc:	800be180 	call	800be18 <__fpclassifyd>
 8002dd0:	da003d17 	ldw	r8,244(sp)
 8002dd4:	1404441e 	bne	r2,r16,8003ee8 <___vfprintf_internal_r+0x174c>
 8002dd8:	d9003617 	ldw	r4,216(sp)
 8002ddc:	d9403817 	ldw	r5,224(sp)
 8002de0:	000d883a 	mov	r6,zero
 8002de4:	000f883a 	mov	r7,zero
 8002de8:	80165d80 	call	80165d8 <__ledf2>
 8002dec:	da003d17 	ldw	r8,244(sp)
 8002df0:	1005e316 	blt	r2,zero,8004580 <___vfprintf_internal_r+0x1de4>
 8002df4:	df002783 	ldbu	fp,158(sp)
 8002df8:	008011c4 	movi	r2,71
 8002dfc:	1445580e 	bge	r2,r17,8004360 <___vfprintf_internal_r+0x1bc4>
 8002e00:	040200b4 	movhi	r16,2050
 8002e04:	8429aa04 	addi	r16,r16,-22872
 8002e08:	00c000c4 	movi	r3,3
 8002e0c:	00bfdfc4 	movi	r2,-129
 8002e10:	d8c02915 	stw	r3,164(sp)
 8002e14:	90a4703a 	and	r18,r18,r2
 8002e18:	d8c02b15 	stw	r3,172(sp)
 8002e1c:	d8002a15 	stw	zero,168(sp)
 8002e20:	d8003215 	stw	zero,200(sp)
 8002e24:	00003a06 	br	8002f10 <___vfprintf_internal_r+0x774>
 8002e28:	84000214 	ori	r16,r16,8
 8002e2c:	ac400007 	ldb	r17,0(r21)
 8002e30:	003ebc06 	br	8002924 <__alt_mem_onchip_memory2_0+0xf80018a4>
 8002e34:	8025883a 	mov	r18,r16
 8002e38:	dc002903 	ldbu	r16,164(sp)
 8002e3c:	e011883a 	mov	r8,fp
 8002e40:	84003fcc 	andi	r16,r16,255
 8002e44:	8007001e 	bne	r16,zero,8004a48 <___vfprintf_internal_r+0x22ac>
 8002e48:	94800414 	ori	r18,r18,16
 8002e4c:	9080080c 	andi	r2,r18,32
 8002e50:	1002fa26 	beq	r2,zero,8003a3c <___vfprintf_internal_r+0x12a0>
 8002e54:	d9002e17 	ldw	r4,184(sp)
 8002e58:	d9402a17 	ldw	r5,168(sp)
 8002e5c:	d8002785 	stb	zero,158(sp)
 8002e60:	20800204 	addi	r2,r4,8
 8002e64:	24c00017 	ldw	r19,0(r4)
 8002e68:	25800117 	ldw	r22,4(r4)
 8002e6c:	2804b116 	blt	r5,zero,8004134 <___vfprintf_internal_r+0x1998>
 8002e70:	013fdfc4 	movi	r4,-129
 8002e74:	9d86b03a 	or	r3,r19,r22
 8002e78:	d8802e15 	stw	r2,184(sp)
 8002e7c:	9124703a 	and	r18,r18,r4
 8002e80:	1802fb1e 	bne	r3,zero,8003a70 <___vfprintf_internal_r+0x12d4>
 8002e84:	d8c02a17 	ldw	r3,168(sp)
 8002e88:	0039883a 	mov	fp,zero
 8002e8c:	1805e526 	beq	r3,zero,8004624 <___vfprintf_internal_r+0x1e88>
 8002e90:	0027883a 	mov	r19,zero
 8002e94:	002d883a 	mov	r22,zero
 8002e98:	dc001e04 	addi	r16,sp,120
 8002e9c:	9806d0fa 	srli	r3,r19,3
 8002ea0:	b008977a 	slli	r4,r22,29
 8002ea4:	b02cd0fa 	srli	r22,r22,3
 8002ea8:	9cc001cc 	andi	r19,r19,7
 8002eac:	98800c04 	addi	r2,r19,48
 8002eb0:	843fffc4 	addi	r16,r16,-1
 8002eb4:	20e6b03a 	or	r19,r4,r3
 8002eb8:	80800005 	stb	r2,0(r16)
 8002ebc:	9d86b03a 	or	r3,r19,r22
 8002ec0:	183ff61e 	bne	r3,zero,8002e9c <__alt_mem_onchip_memory2_0+0xf8001e1c>
 8002ec4:	90c0004c 	andi	r3,r18,1
 8002ec8:	18014126 	beq	r3,zero,80033d0 <___vfprintf_internal_r+0xc34>
 8002ecc:	10803fcc 	andi	r2,r2,255
 8002ed0:	1080201c 	xori	r2,r2,128
 8002ed4:	10bfe004 	addi	r2,r2,-128
 8002ed8:	00c00c04 	movi	r3,48
 8002edc:	10c13c26 	beq	r2,r3,80033d0 <___vfprintf_internal_r+0xc34>
 8002ee0:	80ffffc5 	stb	r3,-1(r16)
 8002ee4:	d8c02817 	ldw	r3,160(sp)
 8002ee8:	80bfffc4 	addi	r2,r16,-1
 8002eec:	1021883a 	mov	r16,r2
 8002ef0:	1887c83a 	sub	r3,r3,r2
 8002ef4:	d8c02b15 	stw	r3,172(sp)
 8002ef8:	d8802b17 	ldw	r2,172(sp)
 8002efc:	d9002a17 	ldw	r4,168(sp)
 8002f00:	1100010e 	bge	r2,r4,8002f08 <___vfprintf_internal_r+0x76c>
 8002f04:	2005883a 	mov	r2,r4
 8002f08:	d8802915 	stw	r2,164(sp)
 8002f0c:	d8003215 	stw	zero,200(sp)
 8002f10:	e7003fcc 	andi	fp,fp,255
 8002f14:	e700201c 	xori	fp,fp,128
 8002f18:	e73fe004 	addi	fp,fp,-128
 8002f1c:	e0000326 	beq	fp,zero,8002f2c <___vfprintf_internal_r+0x790>
 8002f20:	d8c02917 	ldw	r3,164(sp)
 8002f24:	18c00044 	addi	r3,r3,1
 8002f28:	d8c02915 	stw	r3,164(sp)
 8002f2c:	90c0008c 	andi	r3,r18,2
 8002f30:	d8c02c15 	stw	r3,176(sp)
 8002f34:	18000326 	beq	r3,zero,8002f44 <___vfprintf_internal_r+0x7a8>
 8002f38:	d8c02917 	ldw	r3,164(sp)
 8002f3c:	18c00084 	addi	r3,r3,2
 8002f40:	d8c02915 	stw	r3,164(sp)
 8002f44:	90c0210c 	andi	r3,r18,132
 8002f48:	d8c03015 	stw	r3,192(sp)
 8002f4c:	1801c51e 	bne	r3,zero,8003664 <___vfprintf_internal_r+0xec8>
 8002f50:	d9003117 	ldw	r4,196(sp)
 8002f54:	d8c02917 	ldw	r3,164(sp)
 8002f58:	20e7c83a 	sub	r19,r4,r3
 8002f5c:	04c1c10e 	bge	zero,r19,8003664 <___vfprintf_internal_r+0xec8>
 8002f60:	02400404 	movi	r9,16
 8002f64:	d8c02017 	ldw	r3,128(sp)
 8002f68:	d8801f17 	ldw	r2,124(sp)
 8002f6c:	4cc52f0e 	bge	r9,r19,800442c <___vfprintf_internal_r+0x1c90>
 8002f70:	014200b4 	movhi	r5,2050
 8002f74:	2969bd84 	addi	r5,r5,-22794
 8002f78:	dc403b15 	stw	r17,236(sp)
 8002f7c:	d9403515 	stw	r5,212(sp)
 8002f80:	9823883a 	mov	r17,r19
 8002f84:	482d883a 	mov	r22,r9
 8002f88:	9027883a 	mov	r19,r18
 8002f8c:	070001c4 	movi	fp,7
 8002f90:	8025883a 	mov	r18,r16
 8002f94:	dc002d17 	ldw	r16,180(sp)
 8002f98:	00000306 	br	8002fa8 <___vfprintf_internal_r+0x80c>
 8002f9c:	8c7ffc04 	addi	r17,r17,-16
 8002fa0:	42000204 	addi	r8,r8,8
 8002fa4:	b440130e 	bge	r22,r17,8002ff4 <___vfprintf_internal_r+0x858>
 8002fa8:	010200b4 	movhi	r4,2050
 8002fac:	18c00404 	addi	r3,r3,16
 8002fb0:	10800044 	addi	r2,r2,1
 8002fb4:	2129bd84 	addi	r4,r4,-22794
 8002fb8:	41000015 	stw	r4,0(r8)
 8002fbc:	45800115 	stw	r22,4(r8)
 8002fc0:	d8c02015 	stw	r3,128(sp)
 8002fc4:	d8801f15 	stw	r2,124(sp)
 8002fc8:	e0bff40e 	bge	fp,r2,8002f9c <__alt_mem_onchip_memory2_0+0xf8001f1c>
 8002fcc:	d9801e04 	addi	r6,sp,120
 8002fd0:	b80b883a 	mov	r5,r23
 8002fd4:	8009883a 	mov	r4,r16
 8002fd8:	8010b580 	call	8010b58 <__sprint_r>
 8002fdc:	103ef31e 	bne	r2,zero,8002bac <__alt_mem_onchip_memory2_0+0xf8001b2c>
 8002fe0:	8c7ffc04 	addi	r17,r17,-16
 8002fe4:	d8c02017 	ldw	r3,128(sp)
 8002fe8:	d8801f17 	ldw	r2,124(sp)
 8002fec:	da000404 	addi	r8,sp,16
 8002ff0:	b47fed16 	blt	r22,r17,8002fa8 <__alt_mem_onchip_memory2_0+0xf8001f28>
 8002ff4:	9021883a 	mov	r16,r18
 8002ff8:	9825883a 	mov	r18,r19
 8002ffc:	8827883a 	mov	r19,r17
 8003000:	dc403b17 	ldw	r17,236(sp)
 8003004:	d9403517 	ldw	r5,212(sp)
 8003008:	98c7883a 	add	r3,r19,r3
 800300c:	10800044 	addi	r2,r2,1
 8003010:	41400015 	stw	r5,0(r8)
 8003014:	44c00115 	stw	r19,4(r8)
 8003018:	d8c02015 	stw	r3,128(sp)
 800301c:	d8801f15 	stw	r2,124(sp)
 8003020:	010001c4 	movi	r4,7
 8003024:	2082c516 	blt	r4,r2,8003b3c <___vfprintf_internal_r+0x13a0>
 8003028:	df002787 	ldb	fp,158(sp)
 800302c:	42000204 	addi	r8,r8,8
 8003030:	e0000c26 	beq	fp,zero,8003064 <___vfprintf_internal_r+0x8c8>
 8003034:	d8801f17 	ldw	r2,124(sp)
 8003038:	d9002784 	addi	r4,sp,158
 800303c:	18c00044 	addi	r3,r3,1
 8003040:	10800044 	addi	r2,r2,1
 8003044:	41000015 	stw	r4,0(r8)
 8003048:	01000044 	movi	r4,1
 800304c:	41000115 	stw	r4,4(r8)
 8003050:	d8c02015 	stw	r3,128(sp)
 8003054:	d8801f15 	stw	r2,124(sp)
 8003058:	010001c4 	movi	r4,7
 800305c:	20825e16 	blt	r4,r2,80039d8 <___vfprintf_internal_r+0x123c>
 8003060:	42000204 	addi	r8,r8,8
 8003064:	d8802c17 	ldw	r2,176(sp)
 8003068:	10000c26 	beq	r2,zero,800309c <___vfprintf_internal_r+0x900>
 800306c:	d8801f17 	ldw	r2,124(sp)
 8003070:	d9002704 	addi	r4,sp,156
 8003074:	18c00084 	addi	r3,r3,2
 8003078:	10800044 	addi	r2,r2,1
 800307c:	41000015 	stw	r4,0(r8)
 8003080:	01000084 	movi	r4,2
 8003084:	41000115 	stw	r4,4(r8)
 8003088:	d8c02015 	stw	r3,128(sp)
 800308c:	d8801f15 	stw	r2,124(sp)
 8003090:	010001c4 	movi	r4,7
 8003094:	20825816 	blt	r4,r2,80039f8 <___vfprintf_internal_r+0x125c>
 8003098:	42000204 	addi	r8,r8,8
 800309c:	d9003017 	ldw	r4,192(sp)
 80030a0:	00802004 	movi	r2,128
 80030a4:	2081bb26 	beq	r4,r2,8003794 <___vfprintf_internal_r+0xff8>
 80030a8:	d9402a17 	ldw	r5,168(sp)
 80030ac:	d8802b17 	ldw	r2,172(sp)
 80030b0:	28adc83a 	sub	r22,r5,r2
 80030b4:	0580310e 	bge	zero,r22,800317c <___vfprintf_internal_r+0x9e0>
 80030b8:	07000404 	movi	fp,16
 80030bc:	d8801f17 	ldw	r2,124(sp)
 80030c0:	e584360e 	bge	fp,r22,800419c <___vfprintf_internal_r+0x1a00>
 80030c4:	014200b4 	movhi	r5,2050
 80030c8:	2969b984 	addi	r5,r5,-22810
 80030cc:	dc402a15 	stw	r17,168(sp)
 80030d0:	d9402c15 	stw	r5,176(sp)
 80030d4:	b023883a 	mov	r17,r22
 80030d8:	04c001c4 	movi	r19,7
 80030dc:	a82d883a 	mov	r22,r21
 80030e0:	902b883a 	mov	r21,r18
 80030e4:	8025883a 	mov	r18,r16
 80030e8:	dc002d17 	ldw	r16,180(sp)
 80030ec:	00000306 	br	80030fc <___vfprintf_internal_r+0x960>
 80030f0:	8c7ffc04 	addi	r17,r17,-16
 80030f4:	42000204 	addi	r8,r8,8
 80030f8:	e440110e 	bge	fp,r17,8003140 <___vfprintf_internal_r+0x9a4>
 80030fc:	18c00404 	addi	r3,r3,16
 8003100:	10800044 	addi	r2,r2,1
 8003104:	45000015 	stw	r20,0(r8)
 8003108:	47000115 	stw	fp,4(r8)
 800310c:	d8c02015 	stw	r3,128(sp)
 8003110:	d8801f15 	stw	r2,124(sp)
 8003114:	98bff60e 	bge	r19,r2,80030f0 <__alt_mem_onchip_memory2_0+0xf8002070>
 8003118:	d9801e04 	addi	r6,sp,120
 800311c:	b80b883a 	mov	r5,r23
 8003120:	8009883a 	mov	r4,r16
 8003124:	8010b580 	call	8010b58 <__sprint_r>
 8003128:	103ea01e 	bne	r2,zero,8002bac <__alt_mem_onchip_memory2_0+0xf8001b2c>
 800312c:	8c7ffc04 	addi	r17,r17,-16
 8003130:	d8c02017 	ldw	r3,128(sp)
 8003134:	d8801f17 	ldw	r2,124(sp)
 8003138:	da000404 	addi	r8,sp,16
 800313c:	e47fef16 	blt	fp,r17,80030fc <__alt_mem_onchip_memory2_0+0xf800207c>
 8003140:	9021883a 	mov	r16,r18
 8003144:	a825883a 	mov	r18,r21
 8003148:	b02b883a 	mov	r21,r22
 800314c:	882d883a 	mov	r22,r17
 8003150:	dc402a17 	ldw	r17,168(sp)
 8003154:	d9002c17 	ldw	r4,176(sp)
 8003158:	1d87883a 	add	r3,r3,r22
 800315c:	10800044 	addi	r2,r2,1
 8003160:	41000015 	stw	r4,0(r8)
 8003164:	45800115 	stw	r22,4(r8)
 8003168:	d8c02015 	stw	r3,128(sp)
 800316c:	d8801f15 	stw	r2,124(sp)
 8003170:	010001c4 	movi	r4,7
 8003174:	20821016 	blt	r4,r2,80039b8 <___vfprintf_internal_r+0x121c>
 8003178:	42000204 	addi	r8,r8,8
 800317c:	9080400c 	andi	r2,r18,256
 8003180:	10013a1e 	bne	r2,zero,800366c <___vfprintf_internal_r+0xed0>
 8003184:	d9402b17 	ldw	r5,172(sp)
 8003188:	d8801f17 	ldw	r2,124(sp)
 800318c:	44000015 	stw	r16,0(r8)
 8003190:	1947883a 	add	r3,r3,r5
 8003194:	10800044 	addi	r2,r2,1
 8003198:	41400115 	stw	r5,4(r8)
 800319c:	d8c02015 	stw	r3,128(sp)
 80031a0:	d8801f15 	stw	r2,124(sp)
 80031a4:	010001c4 	movi	r4,7
 80031a8:	2081f516 	blt	r4,r2,8003980 <___vfprintf_internal_r+0x11e4>
 80031ac:	42000204 	addi	r8,r8,8
 80031b0:	9480010c 	andi	r18,r18,4
 80031b4:	90003226 	beq	r18,zero,8003280 <___vfprintf_internal_r+0xae4>
 80031b8:	d9403117 	ldw	r5,196(sp)
 80031bc:	d8802917 	ldw	r2,164(sp)
 80031c0:	28a1c83a 	sub	r16,r5,r2
 80031c4:	04002e0e 	bge	zero,r16,8003280 <___vfprintf_internal_r+0xae4>
 80031c8:	04400404 	movi	r17,16
 80031cc:	d8801f17 	ldw	r2,124(sp)
 80031d0:	8c04c40e 	bge	r17,r16,80044e4 <___vfprintf_internal_r+0x1d48>
 80031d4:	014200b4 	movhi	r5,2050
 80031d8:	2969bd84 	addi	r5,r5,-22794
 80031dc:	d9403515 	stw	r5,212(sp)
 80031e0:	048001c4 	movi	r18,7
 80031e4:	dcc02d17 	ldw	r19,180(sp)
 80031e8:	00000306 	br	80031f8 <___vfprintf_internal_r+0xa5c>
 80031ec:	843ffc04 	addi	r16,r16,-16
 80031f0:	42000204 	addi	r8,r8,8
 80031f4:	8c00130e 	bge	r17,r16,8003244 <___vfprintf_internal_r+0xaa8>
 80031f8:	010200b4 	movhi	r4,2050
 80031fc:	18c00404 	addi	r3,r3,16
 8003200:	10800044 	addi	r2,r2,1
 8003204:	2129bd84 	addi	r4,r4,-22794
 8003208:	41000015 	stw	r4,0(r8)
 800320c:	44400115 	stw	r17,4(r8)
 8003210:	d8c02015 	stw	r3,128(sp)
 8003214:	d8801f15 	stw	r2,124(sp)
 8003218:	90bff40e 	bge	r18,r2,80031ec <__alt_mem_onchip_memory2_0+0xf800216c>
 800321c:	d9801e04 	addi	r6,sp,120
 8003220:	b80b883a 	mov	r5,r23
 8003224:	9809883a 	mov	r4,r19
 8003228:	8010b580 	call	8010b58 <__sprint_r>
 800322c:	103e5f1e 	bne	r2,zero,8002bac <__alt_mem_onchip_memory2_0+0xf8001b2c>
 8003230:	843ffc04 	addi	r16,r16,-16
 8003234:	d8c02017 	ldw	r3,128(sp)
 8003238:	d8801f17 	ldw	r2,124(sp)
 800323c:	da000404 	addi	r8,sp,16
 8003240:	8c3fed16 	blt	r17,r16,80031f8 <__alt_mem_onchip_memory2_0+0xf8002178>
 8003244:	d9403517 	ldw	r5,212(sp)
 8003248:	1c07883a 	add	r3,r3,r16
 800324c:	10800044 	addi	r2,r2,1
 8003250:	41400015 	stw	r5,0(r8)
 8003254:	44000115 	stw	r16,4(r8)
 8003258:	d8c02015 	stw	r3,128(sp)
 800325c:	d8801f15 	stw	r2,124(sp)
 8003260:	010001c4 	movi	r4,7
 8003264:	2080060e 	bge	r4,r2,8003280 <___vfprintf_internal_r+0xae4>
 8003268:	d9002d17 	ldw	r4,180(sp)
 800326c:	d9801e04 	addi	r6,sp,120
 8003270:	b80b883a 	mov	r5,r23
 8003274:	8010b580 	call	8010b58 <__sprint_r>
 8003278:	103e4c1e 	bne	r2,zero,8002bac <__alt_mem_onchip_memory2_0+0xf8001b2c>
 800327c:	d8c02017 	ldw	r3,128(sp)
 8003280:	d8803117 	ldw	r2,196(sp)
 8003284:	d9002917 	ldw	r4,164(sp)
 8003288:	1100010e 	bge	r2,r4,8003290 <___vfprintf_internal_r+0xaf4>
 800328c:	2005883a 	mov	r2,r4
 8003290:	d9402f17 	ldw	r5,188(sp)
 8003294:	288b883a 	add	r5,r5,r2
 8003298:	d9402f15 	stw	r5,188(sp)
 800329c:	1801c01e 	bne	r3,zero,80039a0 <___vfprintf_internal_r+0x1204>
 80032a0:	a8800007 	ldb	r2,0(r21)
 80032a4:	d8001f15 	stw	zero,124(sp)
 80032a8:	da000404 	addi	r8,sp,16
 80032ac:	103d751e 	bne	r2,zero,8002884 <__alt_mem_onchip_memory2_0+0xf8001804>
 80032b0:	a823883a 	mov	r17,r21
 80032b4:	003d8b06 	br	80028e4 <__alt_mem_onchip_memory2_0+0xf8001864>
 80032b8:	8025883a 	mov	r18,r16
 80032bc:	dc002903 	ldbu	r16,164(sp)
 80032c0:	e011883a 	mov	r8,fp
 80032c4:	84003fcc 	andi	r16,r16,255
 80032c8:	8005e51e 	bne	r16,zero,8004a60 <___vfprintf_internal_r+0x22c4>
 80032cc:	94800414 	ori	r18,r18,16
 80032d0:	9080080c 	andi	r2,r18,32
 80032d4:	10022b26 	beq	r2,zero,8003b84 <___vfprintf_internal_r+0x13e8>
 80032d8:	d9002e17 	ldw	r4,184(sp)
 80032dc:	d9402a17 	ldw	r5,168(sp)
 80032e0:	d8002785 	stb	zero,158(sp)
 80032e4:	20c00204 	addi	r3,r4,8
 80032e8:	24c00017 	ldw	r19,0(r4)
 80032ec:	25800117 	ldw	r22,4(r4)
 80032f0:	28042e16 	blt	r5,zero,80043ac <___vfprintf_internal_r+0x1c10>
 80032f4:	013fdfc4 	movi	r4,-129
 80032f8:	9d84b03a 	or	r2,r19,r22
 80032fc:	d8c02e15 	stw	r3,184(sp)
 8003300:	9124703a 	and	r18,r18,r4
 8003304:	0039883a 	mov	fp,zero
 8003308:	103e801e 	bne	r2,zero,8002d0c <__alt_mem_onchip_memory2_0+0xf8001c8c>
 800330c:	d9002a17 	ldw	r4,168(sp)
 8003310:	2002e01e 	bne	r4,zero,8003e94 <___vfprintf_internal_r+0x16f8>
 8003314:	d8002a15 	stw	zero,168(sp)
 8003318:	d8002b15 	stw	zero,172(sp)
 800331c:	dc001e04 	addi	r16,sp,120
 8003320:	003ef506 	br	8002ef8 <__alt_mem_onchip_memory2_0+0xf8001e78>
 8003324:	8025883a 	mov	r18,r16
 8003328:	dc002903 	ldbu	r16,164(sp)
 800332c:	e011883a 	mov	r8,fp
 8003330:	84003fcc 	andi	r16,r16,255
 8003334:	8005ba1e 	bne	r16,zero,8004a20 <___vfprintf_internal_r+0x2284>
 8003338:	010200b4 	movhi	r4,2050
 800333c:	2129ad04 	addi	r4,r4,-22860
 8003340:	d9003915 	stw	r4,228(sp)
 8003344:	9080080c 	andi	r2,r18,32
 8003348:	10006126 	beq	r2,zero,80034d0 <___vfprintf_internal_r+0xd34>
 800334c:	d9402e17 	ldw	r5,184(sp)
 8003350:	2cc00017 	ldw	r19,0(r5)
 8003354:	2d800117 	ldw	r22,4(r5)
 8003358:	29400204 	addi	r5,r5,8
 800335c:	d9402e15 	stw	r5,184(sp)
 8003360:	9080004c 	andi	r2,r18,1
 8003364:	1001ac26 	beq	r2,zero,8003a18 <___vfprintf_internal_r+0x127c>
 8003368:	9d84b03a 	or	r2,r19,r22
 800336c:	10038526 	beq	r2,zero,8004184 <___vfprintf_internal_r+0x19e8>
 8003370:	d8c02a17 	ldw	r3,168(sp)
 8003374:	00800c04 	movi	r2,48
 8003378:	d8802705 	stb	r2,156(sp)
 800337c:	dc402745 	stb	r17,157(sp)
 8003380:	d8002785 	stb	zero,158(sp)
 8003384:	90800094 	ori	r2,r18,2
 8003388:	18047916 	blt	r3,zero,8004570 <___vfprintf_internal_r+0x1dd4>
 800338c:	00bfdfc4 	movi	r2,-129
 8003390:	90a4703a 	and	r18,r18,r2
 8003394:	94800094 	ori	r18,r18,2
 8003398:	0039883a 	mov	fp,zero
 800339c:	d9003917 	ldw	r4,228(sp)
 80033a0:	dc001e04 	addi	r16,sp,120
 80033a4:	988003cc 	andi	r2,r19,15
 80033a8:	b006973a 	slli	r3,r22,28
 80033ac:	2085883a 	add	r2,r4,r2
 80033b0:	9826d13a 	srli	r19,r19,4
 80033b4:	10800003 	ldbu	r2,0(r2)
 80033b8:	b02cd13a 	srli	r22,r22,4
 80033bc:	843fffc4 	addi	r16,r16,-1
 80033c0:	1ce6b03a 	or	r19,r3,r19
 80033c4:	80800005 	stb	r2,0(r16)
 80033c8:	9d84b03a 	or	r2,r19,r22
 80033cc:	103ff51e 	bne	r2,zero,80033a4 <__alt_mem_onchip_memory2_0+0xf8002324>
 80033d0:	d8c02817 	ldw	r3,160(sp)
 80033d4:	1c07c83a 	sub	r3,r3,r16
 80033d8:	d8c02b15 	stw	r3,172(sp)
 80033dc:	003ec606 	br	8002ef8 <__alt_mem_onchip_memory2_0+0xf8001e78>
 80033e0:	8025883a 	mov	r18,r16
 80033e4:	dc002903 	ldbu	r16,164(sp)
 80033e8:	e011883a 	mov	r8,fp
 80033ec:	84003fcc 	andi	r16,r16,255
 80033f0:	803e9626 	beq	r16,zero,8002e4c <__alt_mem_onchip_memory2_0+0xf8001dcc>
 80033f4:	d8c02b03 	ldbu	r3,172(sp)
 80033f8:	d8c02785 	stb	r3,158(sp)
 80033fc:	003e9306 	br	8002e4c <__alt_mem_onchip_memory2_0+0xf8001dcc>
 8003400:	00c00044 	movi	r3,1
 8003404:	d8c02905 	stb	r3,164(sp)
 8003408:	00c00ac4 	movi	r3,43
 800340c:	d8c02b05 	stb	r3,172(sp)
 8003410:	ac400007 	ldb	r17,0(r21)
 8003414:	003d4306 	br	8002924 <__alt_mem_onchip_memory2_0+0xf80018a4>
 8003418:	84000814 	ori	r16,r16,32
 800341c:	ac400007 	ldb	r17,0(r21)
 8003420:	003d4006 	br	8002924 <__alt_mem_onchip_memory2_0+0xf80018a4>
 8003424:	d8802e17 	ldw	r2,184(sp)
 8003428:	8025883a 	mov	r18,r16
 800342c:	d8002785 	stb	zero,158(sp)
 8003430:	14000017 	ldw	r16,0(r2)
 8003434:	e011883a 	mov	r8,fp
 8003438:	14c00104 	addi	r19,r2,4
 800343c:	80042d26 	beq	r16,zero,80044f4 <___vfprintf_internal_r+0x1d58>
 8003440:	d8c02a17 	ldw	r3,168(sp)
 8003444:	1803e416 	blt	r3,zero,80043d8 <___vfprintf_internal_r+0x1c3c>
 8003448:	180d883a 	mov	r6,r3
 800344c:	000b883a 	mov	r5,zero
 8003450:	8009883a 	mov	r4,r16
 8003454:	df003d15 	stw	fp,244(sp)
 8003458:	8009ff40 	call	8009ff4 <memchr>
 800345c:	da003d17 	ldw	r8,244(sp)
 8003460:	10046826 	beq	r2,zero,8004604 <___vfprintf_internal_r+0x1e68>
 8003464:	1405c83a 	sub	r2,r2,r16
 8003468:	d8802b15 	stw	r2,172(sp)
 800346c:	1003e016 	blt	r2,zero,80043f0 <___vfprintf_internal_r+0x1c54>
 8003470:	df002783 	ldbu	fp,158(sp)
 8003474:	d8802915 	stw	r2,164(sp)
 8003478:	dcc02e15 	stw	r19,184(sp)
 800347c:	d8002a15 	stw	zero,168(sp)
 8003480:	d8003215 	stw	zero,200(sp)
 8003484:	003ea206 	br	8002f10 <__alt_mem_onchip_memory2_0+0xf8001e90>
 8003488:	8025883a 	mov	r18,r16
 800348c:	dc002903 	ldbu	r16,164(sp)
 8003490:	e011883a 	mov	r8,fp
 8003494:	84003fcc 	andi	r16,r16,255
 8003498:	803f8d26 	beq	r16,zero,80032d0 <__alt_mem_onchip_memory2_0+0xf8002250>
 800349c:	d8c02b03 	ldbu	r3,172(sp)
 80034a0:	d8c02785 	stb	r3,158(sp)
 80034a4:	003f8a06 	br	80032d0 <__alt_mem_onchip_memory2_0+0xf8002250>
 80034a8:	8025883a 	mov	r18,r16
 80034ac:	dc002903 	ldbu	r16,164(sp)
 80034b0:	e011883a 	mov	r8,fp
 80034b4:	84003fcc 	andi	r16,r16,255
 80034b8:	8005661e 	bne	r16,zero,8004a54 <___vfprintf_internal_r+0x22b8>
 80034bc:	010200b4 	movhi	r4,2050
 80034c0:	2129b204 	addi	r4,r4,-22840
 80034c4:	d9003915 	stw	r4,228(sp)
 80034c8:	9080080c 	andi	r2,r18,32
 80034cc:	103f9f1e 	bne	r2,zero,800334c <__alt_mem_onchip_memory2_0+0xf80022cc>
 80034d0:	9080040c 	andi	r2,r18,16
 80034d4:	1002eb26 	beq	r2,zero,8004084 <___vfprintf_internal_r+0x18e8>
 80034d8:	d8802e17 	ldw	r2,184(sp)
 80034dc:	002d883a 	mov	r22,zero
 80034e0:	14c00017 	ldw	r19,0(r2)
 80034e4:	10800104 	addi	r2,r2,4
 80034e8:	d8802e15 	stw	r2,184(sp)
 80034ec:	003f9c06 	br	8003360 <__alt_mem_onchip_memory2_0+0xf80022e0>
 80034f0:	d8802b07 	ldb	r2,172(sp)
 80034f4:	1002e11e 	bne	r2,zero,800407c <___vfprintf_internal_r+0x18e0>
 80034f8:	00c00044 	movi	r3,1
 80034fc:	d8c02905 	stb	r3,164(sp)
 8003500:	00c00804 	movi	r3,32
 8003504:	d8c02b05 	stb	r3,172(sp)
 8003508:	ac400007 	ldb	r17,0(r21)
 800350c:	003d0506 	br	8002924 <__alt_mem_onchip_memory2_0+0xf80018a4>
 8003510:	84000054 	ori	r16,r16,1
 8003514:	ac400007 	ldb	r17,0(r21)
 8003518:	003d0206 	br	8002924 <__alt_mem_onchip_memory2_0+0xf80018a4>
 800351c:	8025883a 	mov	r18,r16
 8003520:	dc002903 	ldbu	r16,164(sp)
 8003524:	e011883a 	mov	r8,fp
 8003528:	84003fcc 	andi	r16,r16,255
 800352c:	803de726 	beq	r16,zero,8002ccc <__alt_mem_onchip_memory2_0+0xf8001c4c>
 8003530:	d8c02b03 	ldbu	r3,172(sp)
 8003534:	d8c02785 	stb	r3,158(sp)
 8003538:	003de406 	br	8002ccc <__alt_mem_onchip_memory2_0+0xf8001c4c>
 800353c:	84001014 	ori	r16,r16,64
 8003540:	ac400007 	ldb	r17,0(r21)
 8003544:	003cf706 	br	8002924 <__alt_mem_onchip_memory2_0+0xf80018a4>
 8003548:	ac400007 	ldb	r17,0(r21)
 800354c:	00801b04 	movi	r2,108
 8003550:	88838f26 	beq	r17,r2,8004390 <___vfprintf_internal_r+0x1bf4>
 8003554:	84000414 	ori	r16,r16,16
 8003558:	003cf206 	br	8002924 <__alt_mem_onchip_memory2_0+0xf80018a4>
 800355c:	8025883a 	mov	r18,r16
 8003560:	dc002903 	ldbu	r16,164(sp)
 8003564:	e011883a 	mov	r8,fp
 8003568:	84003fcc 	andi	r16,r16,255
 800356c:	80053f1e 	bne	r16,zero,8004a6c <___vfprintf_internal_r+0x22d0>
 8003570:	9080080c 	andi	r2,r18,32
 8003574:	1002d226 	beq	r2,zero,80040c0 <___vfprintf_internal_r+0x1924>
 8003578:	d9002e17 	ldw	r4,184(sp)
 800357c:	d9402f17 	ldw	r5,188(sp)
 8003580:	20800017 	ldw	r2,0(r4)
 8003584:	2807d7fa 	srai	r3,r5,31
 8003588:	21000104 	addi	r4,r4,4
 800358c:	d9002e15 	stw	r4,184(sp)
 8003590:	11400015 	stw	r5,0(r2)
 8003594:	10c00115 	stw	r3,4(r2)
 8003598:	003cb806 	br	800287c <__alt_mem_onchip_memory2_0+0xf80017fc>
 800359c:	d8c02e17 	ldw	r3,184(sp)
 80035a0:	d9002e17 	ldw	r4,184(sp)
 80035a4:	8025883a 	mov	r18,r16
 80035a8:	18800017 	ldw	r2,0(r3)
 80035ac:	21000104 	addi	r4,r4,4
 80035b0:	00c00044 	movi	r3,1
 80035b4:	e011883a 	mov	r8,fp
 80035b8:	d8c02915 	stw	r3,164(sp)
 80035bc:	d8002785 	stb	zero,158(sp)
 80035c0:	d8801405 	stb	r2,80(sp)
 80035c4:	d9002e15 	stw	r4,184(sp)
 80035c8:	d8c02b15 	stw	r3,172(sp)
 80035cc:	d8002a15 	stw	zero,168(sp)
 80035d0:	d8003215 	stw	zero,200(sp)
 80035d4:	dc001404 	addi	r16,sp,80
 80035d8:	0039883a 	mov	fp,zero
 80035dc:	003e5306 	br	8002f2c <__alt_mem_onchip_memory2_0+0xf8001eac>
 80035e0:	010200b4 	movhi	r4,2050
 80035e4:	2129b204 	addi	r4,r4,-22840
 80035e8:	0039883a 	mov	fp,zero
 80035ec:	d9003915 	stw	r4,228(sp)
 80035f0:	04401e04 	movi	r17,120
 80035f4:	003f6906 	br	800339c <__alt_mem_onchip_memory2_0+0xf800231c>
 80035f8:	8025883a 	mov	r18,r16
 80035fc:	dc002903 	ldbu	r16,164(sp)
 8003600:	e011883a 	mov	r8,fp
 8003604:	84003fcc 	andi	r16,r16,255
 8003608:	8005081e 	bne	r16,zero,8004a2c <___vfprintf_internal_r+0x2290>
 800360c:	883d6126 	beq	r17,zero,8002b94 <__alt_mem_onchip_memory2_0+0xf8001b14>
 8003610:	00c00044 	movi	r3,1
 8003614:	d8c02915 	stw	r3,164(sp)
 8003618:	dc401405 	stb	r17,80(sp)
 800361c:	d8002785 	stb	zero,158(sp)
 8003620:	003fe906 	br	80035c8 <__alt_mem_onchip_memory2_0+0xf8002548>
 8003624:	014200b4 	movhi	r5,2050
 8003628:	2969b204 	addi	r5,r5,-22840
 800362c:	d9403915 	stw	r5,228(sp)
 8003630:	d8c02e15 	stw	r3,184(sp)
 8003634:	1025883a 	mov	r18,r2
 8003638:	04401e04 	movi	r17,120
 800363c:	9d84b03a 	or	r2,r19,r22
 8003640:	1000fc1e 	bne	r2,zero,8003a34 <___vfprintf_internal_r+0x1298>
 8003644:	0039883a 	mov	fp,zero
 8003648:	00800084 	movi	r2,2
 800364c:	10803fcc 	andi	r2,r2,255
 8003650:	00c00044 	movi	r3,1
 8003654:	10c20f26 	beq	r2,r3,8003e94 <___vfprintf_internal_r+0x16f8>
 8003658:	00c00084 	movi	r3,2
 800365c:	10fd3326 	beq	r2,r3,8002b2c <__alt_mem_onchip_memory2_0+0xf8001aac>
 8003660:	003e0b06 	br	8002e90 <__alt_mem_onchip_memory2_0+0xf8001e10>
 8003664:	d8c02017 	ldw	r3,128(sp)
 8003668:	003e7106 	br	8003030 <__alt_mem_onchip_memory2_0+0xf8001fb0>
 800366c:	00801944 	movi	r2,101
 8003670:	14407e0e 	bge	r2,r17,800386c <___vfprintf_internal_r+0x10d0>
 8003674:	d9003617 	ldw	r4,216(sp)
 8003678:	d9403817 	ldw	r5,224(sp)
 800367c:	000d883a 	mov	r6,zero
 8003680:	000f883a 	mov	r7,zero
 8003684:	d8c03c15 	stw	r3,240(sp)
 8003688:	da003d15 	stw	r8,244(sp)
 800368c:	80164740 	call	8016474 <__eqdf2>
 8003690:	d8c03c17 	ldw	r3,240(sp)
 8003694:	da003d17 	ldw	r8,244(sp)
 8003698:	1000f71e 	bne	r2,zero,8003a78 <___vfprintf_internal_r+0x12dc>
 800369c:	d8801f17 	ldw	r2,124(sp)
 80036a0:	010200b4 	movhi	r4,2050
 80036a4:	2129b904 	addi	r4,r4,-22812
 80036a8:	18c00044 	addi	r3,r3,1
 80036ac:	10800044 	addi	r2,r2,1
 80036b0:	41000015 	stw	r4,0(r8)
 80036b4:	01000044 	movi	r4,1
 80036b8:	41000115 	stw	r4,4(r8)
 80036bc:	d8c02015 	stw	r3,128(sp)
 80036c0:	d8801f15 	stw	r2,124(sp)
 80036c4:	010001c4 	movi	r4,7
 80036c8:	2082b816 	blt	r4,r2,80041ac <___vfprintf_internal_r+0x1a10>
 80036cc:	42000204 	addi	r8,r8,8
 80036d0:	d8802617 	ldw	r2,152(sp)
 80036d4:	d9403317 	ldw	r5,204(sp)
 80036d8:	11400216 	blt	r2,r5,80036e4 <___vfprintf_internal_r+0xf48>
 80036dc:	9080004c 	andi	r2,r18,1
 80036e0:	103eb326 	beq	r2,zero,80031b0 <__alt_mem_onchip_memory2_0+0xf8002130>
 80036e4:	d8803717 	ldw	r2,220(sp)
 80036e8:	d9003417 	ldw	r4,208(sp)
 80036ec:	d9403717 	ldw	r5,220(sp)
 80036f0:	1887883a 	add	r3,r3,r2
 80036f4:	d8801f17 	ldw	r2,124(sp)
 80036f8:	41000015 	stw	r4,0(r8)
 80036fc:	41400115 	stw	r5,4(r8)
 8003700:	10800044 	addi	r2,r2,1
 8003704:	d8c02015 	stw	r3,128(sp)
 8003708:	d8801f15 	stw	r2,124(sp)
 800370c:	010001c4 	movi	r4,7
 8003710:	20832916 	blt	r4,r2,80043b8 <___vfprintf_internal_r+0x1c1c>
 8003714:	42000204 	addi	r8,r8,8
 8003718:	d8803317 	ldw	r2,204(sp)
 800371c:	143fffc4 	addi	r16,r2,-1
 8003720:	043ea30e 	bge	zero,r16,80031b0 <__alt_mem_onchip_memory2_0+0xf8002130>
 8003724:	04400404 	movi	r17,16
 8003728:	d8801f17 	ldw	r2,124(sp)
 800372c:	8c00880e 	bge	r17,r16,8003950 <___vfprintf_internal_r+0x11b4>
 8003730:	014200b4 	movhi	r5,2050
 8003734:	2969b984 	addi	r5,r5,-22810
 8003738:	d9402c15 	stw	r5,176(sp)
 800373c:	058001c4 	movi	r22,7
 8003740:	dcc02d17 	ldw	r19,180(sp)
 8003744:	00000306 	br	8003754 <___vfprintf_internal_r+0xfb8>
 8003748:	42000204 	addi	r8,r8,8
 800374c:	843ffc04 	addi	r16,r16,-16
 8003750:	8c00820e 	bge	r17,r16,800395c <___vfprintf_internal_r+0x11c0>
 8003754:	18c00404 	addi	r3,r3,16
 8003758:	10800044 	addi	r2,r2,1
 800375c:	45000015 	stw	r20,0(r8)
 8003760:	44400115 	stw	r17,4(r8)
 8003764:	d8c02015 	stw	r3,128(sp)
 8003768:	d8801f15 	stw	r2,124(sp)
 800376c:	b0bff60e 	bge	r22,r2,8003748 <__alt_mem_onchip_memory2_0+0xf80026c8>
 8003770:	d9801e04 	addi	r6,sp,120
 8003774:	b80b883a 	mov	r5,r23
 8003778:	9809883a 	mov	r4,r19
 800377c:	8010b580 	call	8010b58 <__sprint_r>
 8003780:	103d0a1e 	bne	r2,zero,8002bac <__alt_mem_onchip_memory2_0+0xf8001b2c>
 8003784:	d8c02017 	ldw	r3,128(sp)
 8003788:	d8801f17 	ldw	r2,124(sp)
 800378c:	da000404 	addi	r8,sp,16
 8003790:	003fee06 	br	800374c <__alt_mem_onchip_memory2_0+0xf80026cc>
 8003794:	d9403117 	ldw	r5,196(sp)
 8003798:	d8802917 	ldw	r2,164(sp)
 800379c:	28adc83a 	sub	r22,r5,r2
 80037a0:	05be410e 	bge	zero,r22,80030a8 <__alt_mem_onchip_memory2_0+0xf8002028>
 80037a4:	07000404 	movi	fp,16
 80037a8:	d8801f17 	ldw	r2,124(sp)
 80037ac:	e5838f0e 	bge	fp,r22,80045ec <___vfprintf_internal_r+0x1e50>
 80037b0:	014200b4 	movhi	r5,2050
 80037b4:	2969b984 	addi	r5,r5,-22810
 80037b8:	dc403015 	stw	r17,192(sp)
 80037bc:	d9402c15 	stw	r5,176(sp)
 80037c0:	b023883a 	mov	r17,r22
 80037c4:	04c001c4 	movi	r19,7
 80037c8:	a82d883a 	mov	r22,r21
 80037cc:	902b883a 	mov	r21,r18
 80037d0:	8025883a 	mov	r18,r16
 80037d4:	dc002d17 	ldw	r16,180(sp)
 80037d8:	00000306 	br	80037e8 <___vfprintf_internal_r+0x104c>
 80037dc:	8c7ffc04 	addi	r17,r17,-16
 80037e0:	42000204 	addi	r8,r8,8
 80037e4:	e440110e 	bge	fp,r17,800382c <___vfprintf_internal_r+0x1090>
 80037e8:	18c00404 	addi	r3,r3,16
 80037ec:	10800044 	addi	r2,r2,1
 80037f0:	45000015 	stw	r20,0(r8)
 80037f4:	47000115 	stw	fp,4(r8)
 80037f8:	d8c02015 	stw	r3,128(sp)
 80037fc:	d8801f15 	stw	r2,124(sp)
 8003800:	98bff60e 	bge	r19,r2,80037dc <__alt_mem_onchip_memory2_0+0xf800275c>
 8003804:	d9801e04 	addi	r6,sp,120
 8003808:	b80b883a 	mov	r5,r23
 800380c:	8009883a 	mov	r4,r16
 8003810:	8010b580 	call	8010b58 <__sprint_r>
 8003814:	103ce51e 	bne	r2,zero,8002bac <__alt_mem_onchip_memory2_0+0xf8001b2c>
 8003818:	8c7ffc04 	addi	r17,r17,-16
 800381c:	d8c02017 	ldw	r3,128(sp)
 8003820:	d8801f17 	ldw	r2,124(sp)
 8003824:	da000404 	addi	r8,sp,16
 8003828:	e47fef16 	blt	fp,r17,80037e8 <__alt_mem_onchip_memory2_0+0xf8002768>
 800382c:	9021883a 	mov	r16,r18
 8003830:	a825883a 	mov	r18,r21
 8003834:	b02b883a 	mov	r21,r22
 8003838:	882d883a 	mov	r22,r17
 800383c:	dc403017 	ldw	r17,192(sp)
 8003840:	d9002c17 	ldw	r4,176(sp)
 8003844:	1d87883a 	add	r3,r3,r22
 8003848:	10800044 	addi	r2,r2,1
 800384c:	41000015 	stw	r4,0(r8)
 8003850:	45800115 	stw	r22,4(r8)
 8003854:	d8c02015 	stw	r3,128(sp)
 8003858:	d8801f15 	stw	r2,124(sp)
 800385c:	010001c4 	movi	r4,7
 8003860:	20818e16 	blt	r4,r2,8003e9c <___vfprintf_internal_r+0x1700>
 8003864:	42000204 	addi	r8,r8,8
 8003868:	003e0f06 	br	80030a8 <__alt_mem_onchip_memory2_0+0xf8002028>
 800386c:	d9403317 	ldw	r5,204(sp)
 8003870:	00800044 	movi	r2,1
 8003874:	18c00044 	addi	r3,r3,1
 8003878:	1141530e 	bge	r2,r5,8003dc8 <___vfprintf_internal_r+0x162c>
 800387c:	dc401f17 	ldw	r17,124(sp)
 8003880:	00800044 	movi	r2,1
 8003884:	40800115 	stw	r2,4(r8)
 8003888:	8c400044 	addi	r17,r17,1
 800388c:	44000015 	stw	r16,0(r8)
 8003890:	d8c02015 	stw	r3,128(sp)
 8003894:	dc401f15 	stw	r17,124(sp)
 8003898:	008001c4 	movi	r2,7
 800389c:	14416b16 	blt	r2,r17,8003e4c <___vfprintf_internal_r+0x16b0>
 80038a0:	42000204 	addi	r8,r8,8
 80038a4:	d8803717 	ldw	r2,220(sp)
 80038a8:	d9003417 	ldw	r4,208(sp)
 80038ac:	8c400044 	addi	r17,r17,1
 80038b0:	10c7883a 	add	r3,r2,r3
 80038b4:	40800115 	stw	r2,4(r8)
 80038b8:	41000015 	stw	r4,0(r8)
 80038bc:	d8c02015 	stw	r3,128(sp)
 80038c0:	dc401f15 	stw	r17,124(sp)
 80038c4:	008001c4 	movi	r2,7
 80038c8:	14416916 	blt	r2,r17,8003e70 <___vfprintf_internal_r+0x16d4>
 80038cc:	45800204 	addi	r22,r8,8
 80038d0:	d9003617 	ldw	r4,216(sp)
 80038d4:	d9403817 	ldw	r5,224(sp)
 80038d8:	000d883a 	mov	r6,zero
 80038dc:	000f883a 	mov	r7,zero
 80038e0:	d8c03c15 	stw	r3,240(sp)
 80038e4:	80164740 	call	8016474 <__eqdf2>
 80038e8:	d8c03c17 	ldw	r3,240(sp)
 80038ec:	1000bc26 	beq	r2,zero,8003be0 <___vfprintf_internal_r+0x1444>
 80038f0:	d9403317 	ldw	r5,204(sp)
 80038f4:	84000044 	addi	r16,r16,1
 80038f8:	8c400044 	addi	r17,r17,1
 80038fc:	28bfffc4 	addi	r2,r5,-1
 8003900:	1887883a 	add	r3,r3,r2
 8003904:	b0800115 	stw	r2,4(r22)
 8003908:	b4000015 	stw	r16,0(r22)
 800390c:	d8c02015 	stw	r3,128(sp)
 8003910:	dc401f15 	stw	r17,124(sp)
 8003914:	008001c4 	movi	r2,7
 8003918:	14414316 	blt	r2,r17,8003e28 <___vfprintf_internal_r+0x168c>
 800391c:	b5800204 	addi	r22,r22,8
 8003920:	d9003a17 	ldw	r4,232(sp)
 8003924:	df0022c4 	addi	fp,sp,139
 8003928:	8c400044 	addi	r17,r17,1
 800392c:	20c7883a 	add	r3,r4,r3
 8003930:	b7000015 	stw	fp,0(r22)
 8003934:	b1000115 	stw	r4,4(r22)
 8003938:	d8c02015 	stw	r3,128(sp)
 800393c:	dc401f15 	stw	r17,124(sp)
 8003940:	008001c4 	movi	r2,7
 8003944:	14400e16 	blt	r2,r17,8003980 <___vfprintf_internal_r+0x11e4>
 8003948:	b2000204 	addi	r8,r22,8
 800394c:	003e1806 	br	80031b0 <__alt_mem_onchip_memory2_0+0xf8002130>
 8003950:	010200b4 	movhi	r4,2050
 8003954:	2129b984 	addi	r4,r4,-22810
 8003958:	d9002c15 	stw	r4,176(sp)
 800395c:	d9002c17 	ldw	r4,176(sp)
 8003960:	1c07883a 	add	r3,r3,r16
 8003964:	44000115 	stw	r16,4(r8)
 8003968:	41000015 	stw	r4,0(r8)
 800396c:	10800044 	addi	r2,r2,1
 8003970:	d8c02015 	stw	r3,128(sp)
 8003974:	d8801f15 	stw	r2,124(sp)
 8003978:	010001c4 	movi	r4,7
 800397c:	20be0b0e 	bge	r4,r2,80031ac <__alt_mem_onchip_memory2_0+0xf800212c>
 8003980:	d9002d17 	ldw	r4,180(sp)
 8003984:	d9801e04 	addi	r6,sp,120
 8003988:	b80b883a 	mov	r5,r23
 800398c:	8010b580 	call	8010b58 <__sprint_r>
 8003990:	103c861e 	bne	r2,zero,8002bac <__alt_mem_onchip_memory2_0+0xf8001b2c>
 8003994:	d8c02017 	ldw	r3,128(sp)
 8003998:	da000404 	addi	r8,sp,16
 800399c:	003e0406 	br	80031b0 <__alt_mem_onchip_memory2_0+0xf8002130>
 80039a0:	d9002d17 	ldw	r4,180(sp)
 80039a4:	d9801e04 	addi	r6,sp,120
 80039a8:	b80b883a 	mov	r5,r23
 80039ac:	8010b580 	call	8010b58 <__sprint_r>
 80039b0:	103e3b26 	beq	r2,zero,80032a0 <__alt_mem_onchip_memory2_0+0xf8002220>
 80039b4:	003c7d06 	br	8002bac <__alt_mem_onchip_memory2_0+0xf8001b2c>
 80039b8:	d9002d17 	ldw	r4,180(sp)
 80039bc:	d9801e04 	addi	r6,sp,120
 80039c0:	b80b883a 	mov	r5,r23
 80039c4:	8010b580 	call	8010b58 <__sprint_r>
 80039c8:	103c781e 	bne	r2,zero,8002bac <__alt_mem_onchip_memory2_0+0xf8001b2c>
 80039cc:	d8c02017 	ldw	r3,128(sp)
 80039d0:	da000404 	addi	r8,sp,16
 80039d4:	003de906 	br	800317c <__alt_mem_onchip_memory2_0+0xf80020fc>
 80039d8:	d9002d17 	ldw	r4,180(sp)
 80039dc:	d9801e04 	addi	r6,sp,120
 80039e0:	b80b883a 	mov	r5,r23
 80039e4:	8010b580 	call	8010b58 <__sprint_r>
 80039e8:	103c701e 	bne	r2,zero,8002bac <__alt_mem_onchip_memory2_0+0xf8001b2c>
 80039ec:	d8c02017 	ldw	r3,128(sp)
 80039f0:	da000404 	addi	r8,sp,16
 80039f4:	003d9b06 	br	8003064 <__alt_mem_onchip_memory2_0+0xf8001fe4>
 80039f8:	d9002d17 	ldw	r4,180(sp)
 80039fc:	d9801e04 	addi	r6,sp,120
 8003a00:	b80b883a 	mov	r5,r23
 8003a04:	8010b580 	call	8010b58 <__sprint_r>
 8003a08:	103c681e 	bne	r2,zero,8002bac <__alt_mem_onchip_memory2_0+0xf8001b2c>
 8003a0c:	d8c02017 	ldw	r3,128(sp)
 8003a10:	da000404 	addi	r8,sp,16
 8003a14:	003da106 	br	800309c <__alt_mem_onchip_memory2_0+0xf800201c>
 8003a18:	d9402a17 	ldw	r5,168(sp)
 8003a1c:	d8002785 	stb	zero,158(sp)
 8003a20:	283f0616 	blt	r5,zero,800363c <__alt_mem_onchip_memory2_0+0xf80025bc>
 8003a24:	00ffdfc4 	movi	r3,-129
 8003a28:	9d84b03a 	or	r2,r19,r22
 8003a2c:	90e4703a 	and	r18,r18,r3
 8003a30:	103c3b26 	beq	r2,zero,8002b20 <__alt_mem_onchip_memory2_0+0xf8001aa0>
 8003a34:	0039883a 	mov	fp,zero
 8003a38:	003e5806 	br	800339c <__alt_mem_onchip_memory2_0+0xf800231c>
 8003a3c:	9080040c 	andi	r2,r18,16
 8003a40:	1001b326 	beq	r2,zero,8004110 <___vfprintf_internal_r+0x1974>
 8003a44:	d8c02e17 	ldw	r3,184(sp)
 8003a48:	d9002a17 	ldw	r4,168(sp)
 8003a4c:	d8002785 	stb	zero,158(sp)
 8003a50:	18800104 	addi	r2,r3,4
 8003a54:	1cc00017 	ldw	r19,0(r3)
 8003a58:	002d883a 	mov	r22,zero
 8003a5c:	2001b516 	blt	r4,zero,8004134 <___vfprintf_internal_r+0x1998>
 8003a60:	00ffdfc4 	movi	r3,-129
 8003a64:	d8802e15 	stw	r2,184(sp)
 8003a68:	90e4703a 	and	r18,r18,r3
 8003a6c:	983d0526 	beq	r19,zero,8002e84 <__alt_mem_onchip_memory2_0+0xf8001e04>
 8003a70:	0039883a 	mov	fp,zero
 8003a74:	003d0806 	br	8002e98 <__alt_mem_onchip_memory2_0+0xf8001e18>
 8003a78:	dc402617 	ldw	r17,152(sp)
 8003a7c:	0441d30e 	bge	zero,r17,80041cc <___vfprintf_internal_r+0x1a30>
 8003a80:	dc403217 	ldw	r17,200(sp)
 8003a84:	d8803317 	ldw	r2,204(sp)
 8003a88:	1440010e 	bge	r2,r17,8003a90 <___vfprintf_internal_r+0x12f4>
 8003a8c:	1023883a 	mov	r17,r2
 8003a90:	04400a0e 	bge	zero,r17,8003abc <___vfprintf_internal_r+0x1320>
 8003a94:	d8801f17 	ldw	r2,124(sp)
 8003a98:	1c47883a 	add	r3,r3,r17
 8003a9c:	44000015 	stw	r16,0(r8)
 8003aa0:	10800044 	addi	r2,r2,1
 8003aa4:	44400115 	stw	r17,4(r8)
 8003aa8:	d8c02015 	stw	r3,128(sp)
 8003aac:	d8801f15 	stw	r2,124(sp)
 8003ab0:	010001c4 	movi	r4,7
 8003ab4:	20826516 	blt	r4,r2,800444c <___vfprintf_internal_r+0x1cb0>
 8003ab8:	42000204 	addi	r8,r8,8
 8003abc:	88026116 	blt	r17,zero,8004444 <___vfprintf_internal_r+0x1ca8>
 8003ac0:	d9003217 	ldw	r4,200(sp)
 8003ac4:	2463c83a 	sub	r17,r4,r17
 8003ac8:	04407b0e 	bge	zero,r17,8003cb8 <___vfprintf_internal_r+0x151c>
 8003acc:	05800404 	movi	r22,16
 8003ad0:	d8801f17 	ldw	r2,124(sp)
 8003ad4:	b4419d0e 	bge	r22,r17,800414c <___vfprintf_internal_r+0x19b0>
 8003ad8:	010200b4 	movhi	r4,2050
 8003adc:	2129b984 	addi	r4,r4,-22810
 8003ae0:	d9002c15 	stw	r4,176(sp)
 8003ae4:	070001c4 	movi	fp,7
 8003ae8:	dcc02d17 	ldw	r19,180(sp)
 8003aec:	00000306 	br	8003afc <___vfprintf_internal_r+0x1360>
 8003af0:	42000204 	addi	r8,r8,8
 8003af4:	8c7ffc04 	addi	r17,r17,-16
 8003af8:	b441970e 	bge	r22,r17,8004158 <___vfprintf_internal_r+0x19bc>
 8003afc:	18c00404 	addi	r3,r3,16
 8003b00:	10800044 	addi	r2,r2,1
 8003b04:	45000015 	stw	r20,0(r8)
 8003b08:	45800115 	stw	r22,4(r8)
 8003b0c:	d8c02015 	stw	r3,128(sp)
 8003b10:	d8801f15 	stw	r2,124(sp)
 8003b14:	e0bff60e 	bge	fp,r2,8003af0 <__alt_mem_onchip_memory2_0+0xf8002a70>
 8003b18:	d9801e04 	addi	r6,sp,120
 8003b1c:	b80b883a 	mov	r5,r23
 8003b20:	9809883a 	mov	r4,r19
 8003b24:	8010b580 	call	8010b58 <__sprint_r>
 8003b28:	103c201e 	bne	r2,zero,8002bac <__alt_mem_onchip_memory2_0+0xf8001b2c>
 8003b2c:	d8c02017 	ldw	r3,128(sp)
 8003b30:	d8801f17 	ldw	r2,124(sp)
 8003b34:	da000404 	addi	r8,sp,16
 8003b38:	003fee06 	br	8003af4 <__alt_mem_onchip_memory2_0+0xf8002a74>
 8003b3c:	d9002d17 	ldw	r4,180(sp)
 8003b40:	d9801e04 	addi	r6,sp,120
 8003b44:	b80b883a 	mov	r5,r23
 8003b48:	8010b580 	call	8010b58 <__sprint_r>
 8003b4c:	103c171e 	bne	r2,zero,8002bac <__alt_mem_onchip_memory2_0+0xf8001b2c>
 8003b50:	d8c02017 	ldw	r3,128(sp)
 8003b54:	df002787 	ldb	fp,158(sp)
 8003b58:	da000404 	addi	r8,sp,16
 8003b5c:	003d3406 	br	8003030 <__alt_mem_onchip_memory2_0+0xf8001fb0>
 8003b60:	9080040c 	andi	r2,r18,16
 8003b64:	10016126 	beq	r2,zero,80040ec <___vfprintf_internal_r+0x1950>
 8003b68:	d9402e17 	ldw	r5,184(sp)
 8003b6c:	2cc00017 	ldw	r19,0(r5)
 8003b70:	29400104 	addi	r5,r5,4
 8003b74:	d9402e15 	stw	r5,184(sp)
 8003b78:	982dd7fa 	srai	r22,r19,31
 8003b7c:	b005883a 	mov	r2,r22
 8003b80:	003c5a06 	br	8002cec <__alt_mem_onchip_memory2_0+0xf8001c6c>
 8003b84:	9080040c 	andi	r2,r18,16
 8003b88:	10003526 	beq	r2,zero,8003c60 <___vfprintf_internal_r+0x14c4>
 8003b8c:	d8c02e17 	ldw	r3,184(sp)
 8003b90:	d9002a17 	ldw	r4,168(sp)
 8003b94:	d8002785 	stb	zero,158(sp)
 8003b98:	18800104 	addi	r2,r3,4
 8003b9c:	1cc00017 	ldw	r19,0(r3)
 8003ba0:	002d883a 	mov	r22,zero
 8003ba4:	20003716 	blt	r4,zero,8003c84 <___vfprintf_internal_r+0x14e8>
 8003ba8:	00ffdfc4 	movi	r3,-129
 8003bac:	d8802e15 	stw	r2,184(sp)
 8003bb0:	90e4703a 	and	r18,r18,r3
 8003bb4:	0039883a 	mov	fp,zero
 8003bb8:	983dd426 	beq	r19,zero,800330c <__alt_mem_onchip_memory2_0+0xf800228c>
 8003bbc:	00800244 	movi	r2,9
 8003bc0:	14fc5336 	bltu	r2,r19,8002d10 <__alt_mem_onchip_memory2_0+0xf8001c90>
 8003bc4:	d8c02817 	ldw	r3,160(sp)
 8003bc8:	dc001dc4 	addi	r16,sp,119
 8003bcc:	9cc00c04 	addi	r19,r19,48
 8003bd0:	1c07c83a 	sub	r3,r3,r16
 8003bd4:	dcc01dc5 	stb	r19,119(sp)
 8003bd8:	d8c02b15 	stw	r3,172(sp)
 8003bdc:	003cc606 	br	8002ef8 <__alt_mem_onchip_memory2_0+0xf8001e78>
 8003be0:	d8803317 	ldw	r2,204(sp)
 8003be4:	143fffc4 	addi	r16,r2,-1
 8003be8:	043f4d0e 	bge	zero,r16,8003920 <__alt_mem_onchip_memory2_0+0xf80028a0>
 8003bec:	07000404 	movi	fp,16
 8003bf0:	e400810e 	bge	fp,r16,8003df8 <___vfprintf_internal_r+0x165c>
 8003bf4:	014200b4 	movhi	r5,2050
 8003bf8:	2969b984 	addi	r5,r5,-22810
 8003bfc:	d9402c15 	stw	r5,176(sp)
 8003c00:	01c001c4 	movi	r7,7
 8003c04:	dcc02d17 	ldw	r19,180(sp)
 8003c08:	00000306 	br	8003c18 <___vfprintf_internal_r+0x147c>
 8003c0c:	b5800204 	addi	r22,r22,8
 8003c10:	843ffc04 	addi	r16,r16,-16
 8003c14:	e4007b0e 	bge	fp,r16,8003e04 <___vfprintf_internal_r+0x1668>
 8003c18:	18c00404 	addi	r3,r3,16
 8003c1c:	8c400044 	addi	r17,r17,1
 8003c20:	b5000015 	stw	r20,0(r22)
 8003c24:	b7000115 	stw	fp,4(r22)
 8003c28:	d8c02015 	stw	r3,128(sp)
 8003c2c:	dc401f15 	stw	r17,124(sp)
 8003c30:	3c7ff60e 	bge	r7,r17,8003c0c <__alt_mem_onchip_memory2_0+0xf8002b8c>
 8003c34:	d9801e04 	addi	r6,sp,120
 8003c38:	b80b883a 	mov	r5,r23
 8003c3c:	9809883a 	mov	r4,r19
 8003c40:	d9c03c15 	stw	r7,240(sp)
 8003c44:	8010b580 	call	8010b58 <__sprint_r>
 8003c48:	d9c03c17 	ldw	r7,240(sp)
 8003c4c:	103bd71e 	bne	r2,zero,8002bac <__alt_mem_onchip_memory2_0+0xf8001b2c>
 8003c50:	d8c02017 	ldw	r3,128(sp)
 8003c54:	dc401f17 	ldw	r17,124(sp)
 8003c58:	dd800404 	addi	r22,sp,16
 8003c5c:	003fec06 	br	8003c10 <__alt_mem_onchip_memory2_0+0xf8002b90>
 8003c60:	9080100c 	andi	r2,r18,64
 8003c64:	d8002785 	stb	zero,158(sp)
 8003c68:	10010e26 	beq	r2,zero,80040a4 <___vfprintf_internal_r+0x1908>
 8003c6c:	d9402e17 	ldw	r5,184(sp)
 8003c70:	d8c02a17 	ldw	r3,168(sp)
 8003c74:	002d883a 	mov	r22,zero
 8003c78:	28800104 	addi	r2,r5,4
 8003c7c:	2cc0000b 	ldhu	r19,0(r5)
 8003c80:	183fc90e 	bge	r3,zero,8003ba8 <__alt_mem_onchip_memory2_0+0xf8002b28>
 8003c84:	d8802e15 	stw	r2,184(sp)
 8003c88:	0039883a 	mov	fp,zero
 8003c8c:	9d84b03a 	or	r2,r19,r22
 8003c90:	103c1e1e 	bne	r2,zero,8002d0c <__alt_mem_onchip_memory2_0+0xf8001c8c>
 8003c94:	00800044 	movi	r2,1
 8003c98:	003e6c06 	br	800364c <__alt_mem_onchip_memory2_0+0xf80025cc>
 8003c9c:	d9002d17 	ldw	r4,180(sp)
 8003ca0:	d9801e04 	addi	r6,sp,120
 8003ca4:	b80b883a 	mov	r5,r23
 8003ca8:	8010b580 	call	8010b58 <__sprint_r>
 8003cac:	103bbf1e 	bne	r2,zero,8002bac <__alt_mem_onchip_memory2_0+0xf8001b2c>
 8003cb0:	d8c02017 	ldw	r3,128(sp)
 8003cb4:	da000404 	addi	r8,sp,16
 8003cb8:	d9003217 	ldw	r4,200(sp)
 8003cbc:	d8802617 	ldw	r2,152(sp)
 8003cc0:	d9403317 	ldw	r5,204(sp)
 8003cc4:	8123883a 	add	r17,r16,r4
 8003cc8:	11400216 	blt	r2,r5,8003cd4 <___vfprintf_internal_r+0x1538>
 8003ccc:	9100004c 	andi	r4,r18,1
 8003cd0:	20000d26 	beq	r4,zero,8003d08 <___vfprintf_internal_r+0x156c>
 8003cd4:	d9003717 	ldw	r4,220(sp)
 8003cd8:	d9403417 	ldw	r5,208(sp)
 8003cdc:	1907883a 	add	r3,r3,r4
 8003ce0:	d9001f17 	ldw	r4,124(sp)
 8003ce4:	41400015 	stw	r5,0(r8)
 8003ce8:	d9403717 	ldw	r5,220(sp)
 8003cec:	21000044 	addi	r4,r4,1
 8003cf0:	d8c02015 	stw	r3,128(sp)
 8003cf4:	41400115 	stw	r5,4(r8)
 8003cf8:	d9001f15 	stw	r4,124(sp)
 8003cfc:	014001c4 	movi	r5,7
 8003d00:	2901e816 	blt	r5,r4,80044a4 <___vfprintf_internal_r+0x1d08>
 8003d04:	42000204 	addi	r8,r8,8
 8003d08:	d9003317 	ldw	r4,204(sp)
 8003d0c:	8121883a 	add	r16,r16,r4
 8003d10:	2085c83a 	sub	r2,r4,r2
 8003d14:	8461c83a 	sub	r16,r16,r17
 8003d18:	1400010e 	bge	r2,r16,8003d20 <___vfprintf_internal_r+0x1584>
 8003d1c:	1021883a 	mov	r16,r2
 8003d20:	04000a0e 	bge	zero,r16,8003d4c <___vfprintf_internal_r+0x15b0>
 8003d24:	d9001f17 	ldw	r4,124(sp)
 8003d28:	1c07883a 	add	r3,r3,r16
 8003d2c:	44400015 	stw	r17,0(r8)
 8003d30:	21000044 	addi	r4,r4,1
 8003d34:	44000115 	stw	r16,4(r8)
 8003d38:	d8c02015 	stw	r3,128(sp)
 8003d3c:	d9001f15 	stw	r4,124(sp)
 8003d40:	014001c4 	movi	r5,7
 8003d44:	2901fb16 	blt	r5,r4,8004534 <___vfprintf_internal_r+0x1d98>
 8003d48:	42000204 	addi	r8,r8,8
 8003d4c:	8001f716 	blt	r16,zero,800452c <___vfprintf_internal_r+0x1d90>
 8003d50:	1421c83a 	sub	r16,r2,r16
 8003d54:	043d160e 	bge	zero,r16,80031b0 <__alt_mem_onchip_memory2_0+0xf8002130>
 8003d58:	04400404 	movi	r17,16
 8003d5c:	d8801f17 	ldw	r2,124(sp)
 8003d60:	8c3efb0e 	bge	r17,r16,8003950 <__alt_mem_onchip_memory2_0+0xf80028d0>
 8003d64:	014200b4 	movhi	r5,2050
 8003d68:	2969b984 	addi	r5,r5,-22810
 8003d6c:	d9402c15 	stw	r5,176(sp)
 8003d70:	058001c4 	movi	r22,7
 8003d74:	dcc02d17 	ldw	r19,180(sp)
 8003d78:	00000306 	br	8003d88 <___vfprintf_internal_r+0x15ec>
 8003d7c:	42000204 	addi	r8,r8,8
 8003d80:	843ffc04 	addi	r16,r16,-16
 8003d84:	8c3ef50e 	bge	r17,r16,800395c <__alt_mem_onchip_memory2_0+0xf80028dc>
 8003d88:	18c00404 	addi	r3,r3,16
 8003d8c:	10800044 	addi	r2,r2,1
 8003d90:	45000015 	stw	r20,0(r8)
 8003d94:	44400115 	stw	r17,4(r8)
 8003d98:	d8c02015 	stw	r3,128(sp)
 8003d9c:	d8801f15 	stw	r2,124(sp)
 8003da0:	b0bff60e 	bge	r22,r2,8003d7c <__alt_mem_onchip_memory2_0+0xf8002cfc>
 8003da4:	d9801e04 	addi	r6,sp,120
 8003da8:	b80b883a 	mov	r5,r23
 8003dac:	9809883a 	mov	r4,r19
 8003db0:	8010b580 	call	8010b58 <__sprint_r>
 8003db4:	103b7d1e 	bne	r2,zero,8002bac <__alt_mem_onchip_memory2_0+0xf8001b2c>
 8003db8:	d8c02017 	ldw	r3,128(sp)
 8003dbc:	d8801f17 	ldw	r2,124(sp)
 8003dc0:	da000404 	addi	r8,sp,16
 8003dc4:	003fee06 	br	8003d80 <__alt_mem_onchip_memory2_0+0xf8002d00>
 8003dc8:	9088703a 	and	r4,r18,r2
 8003dcc:	203eab1e 	bne	r4,zero,800387c <__alt_mem_onchip_memory2_0+0xf80027fc>
 8003dd0:	dc401f17 	ldw	r17,124(sp)
 8003dd4:	40800115 	stw	r2,4(r8)
 8003dd8:	44000015 	stw	r16,0(r8)
 8003ddc:	8c400044 	addi	r17,r17,1
 8003de0:	d8c02015 	stw	r3,128(sp)
 8003de4:	dc401f15 	stw	r17,124(sp)
 8003de8:	008001c4 	movi	r2,7
 8003dec:	14400e16 	blt	r2,r17,8003e28 <___vfprintf_internal_r+0x168c>
 8003df0:	45800204 	addi	r22,r8,8
 8003df4:	003eca06 	br	8003920 <__alt_mem_onchip_memory2_0+0xf80028a0>
 8003df8:	010200b4 	movhi	r4,2050
 8003dfc:	2129b984 	addi	r4,r4,-22810
 8003e00:	d9002c15 	stw	r4,176(sp)
 8003e04:	d8802c17 	ldw	r2,176(sp)
 8003e08:	1c07883a 	add	r3,r3,r16
 8003e0c:	8c400044 	addi	r17,r17,1
 8003e10:	b0800015 	stw	r2,0(r22)
 8003e14:	b4000115 	stw	r16,4(r22)
 8003e18:	d8c02015 	stw	r3,128(sp)
 8003e1c:	dc401f15 	stw	r17,124(sp)
 8003e20:	008001c4 	movi	r2,7
 8003e24:	147ebd0e 	bge	r2,r17,800391c <__alt_mem_onchip_memory2_0+0xf800289c>
 8003e28:	d9002d17 	ldw	r4,180(sp)
 8003e2c:	d9801e04 	addi	r6,sp,120
 8003e30:	b80b883a 	mov	r5,r23
 8003e34:	8010b580 	call	8010b58 <__sprint_r>
 8003e38:	103b5c1e 	bne	r2,zero,8002bac <__alt_mem_onchip_memory2_0+0xf8001b2c>
 8003e3c:	d8c02017 	ldw	r3,128(sp)
 8003e40:	dc401f17 	ldw	r17,124(sp)
 8003e44:	dd800404 	addi	r22,sp,16
 8003e48:	003eb506 	br	8003920 <__alt_mem_onchip_memory2_0+0xf80028a0>
 8003e4c:	d9002d17 	ldw	r4,180(sp)
 8003e50:	d9801e04 	addi	r6,sp,120
 8003e54:	b80b883a 	mov	r5,r23
 8003e58:	8010b580 	call	8010b58 <__sprint_r>
 8003e5c:	103b531e 	bne	r2,zero,8002bac <__alt_mem_onchip_memory2_0+0xf8001b2c>
 8003e60:	d8c02017 	ldw	r3,128(sp)
 8003e64:	dc401f17 	ldw	r17,124(sp)
 8003e68:	da000404 	addi	r8,sp,16
 8003e6c:	003e8d06 	br	80038a4 <__alt_mem_onchip_memory2_0+0xf8002824>
 8003e70:	d9002d17 	ldw	r4,180(sp)
 8003e74:	d9801e04 	addi	r6,sp,120
 8003e78:	b80b883a 	mov	r5,r23
 8003e7c:	8010b580 	call	8010b58 <__sprint_r>
 8003e80:	103b4a1e 	bne	r2,zero,8002bac <__alt_mem_onchip_memory2_0+0xf8001b2c>
 8003e84:	d8c02017 	ldw	r3,128(sp)
 8003e88:	dc401f17 	ldw	r17,124(sp)
 8003e8c:	dd800404 	addi	r22,sp,16
 8003e90:	003e8f06 	br	80038d0 <__alt_mem_onchip_memory2_0+0xf8002850>
 8003e94:	0027883a 	mov	r19,zero
 8003e98:	003f4a06 	br	8003bc4 <__alt_mem_onchip_memory2_0+0xf8002b44>
 8003e9c:	d9002d17 	ldw	r4,180(sp)
 8003ea0:	d9801e04 	addi	r6,sp,120
 8003ea4:	b80b883a 	mov	r5,r23
 8003ea8:	8010b580 	call	8010b58 <__sprint_r>
 8003eac:	103b3f1e 	bne	r2,zero,8002bac <__alt_mem_onchip_memory2_0+0xf8001b2c>
 8003eb0:	d8c02017 	ldw	r3,128(sp)
 8003eb4:	da000404 	addi	r8,sp,16
 8003eb8:	003c7b06 	br	80030a8 <__alt_mem_onchip_memory2_0+0xf8002028>
 8003ebc:	d9402a17 	ldw	r5,168(sp)
 8003ec0:	04e7c83a 	sub	r19,zero,r19
 8003ec4:	07000b44 	movi	fp,45
 8003ec8:	9804c03a 	cmpne	r2,r19,zero
 8003ecc:	05adc83a 	sub	r22,zero,r22
 8003ed0:	df002785 	stb	fp,158(sp)
 8003ed4:	b0adc83a 	sub	r22,r22,r2
 8003ed8:	28017b16 	blt	r5,zero,80044c8 <___vfprintf_internal_r+0x1d2c>
 8003edc:	00bfdfc4 	movi	r2,-129
 8003ee0:	90a4703a 	and	r18,r18,r2
 8003ee4:	003b8906 	br	8002d0c <__alt_mem_onchip_memory2_0+0xf8001c8c>
 8003ee8:	d9003617 	ldw	r4,216(sp)
 8003eec:	d9403817 	ldw	r5,224(sp)
 8003ef0:	da003d15 	stw	r8,244(sp)
 8003ef4:	800be180 	call	800be18 <__fpclassifyd>
 8003ef8:	da003d17 	ldw	r8,244(sp)
 8003efc:	1000f026 	beq	r2,zero,80042c0 <___vfprintf_internal_r+0x1b24>
 8003f00:	d9002a17 	ldw	r4,168(sp)
 8003f04:	05bff7c4 	movi	r22,-33
 8003f08:	00bfffc4 	movi	r2,-1
 8003f0c:	8dac703a 	and	r22,r17,r22
 8003f10:	20820026 	beq	r4,r2,8004714 <___vfprintf_internal_r+0x1f78>
 8003f14:	008011c4 	movi	r2,71
 8003f18:	b081f726 	beq	r22,r2,80046f8 <___vfprintf_internal_r+0x1f5c>
 8003f1c:	d9003817 	ldw	r4,224(sp)
 8003f20:	90c04014 	ori	r3,r18,256
 8003f24:	d8c02c15 	stw	r3,176(sp)
 8003f28:	20021516 	blt	r4,zero,8004780 <___vfprintf_internal_r+0x1fe4>
 8003f2c:	dcc03817 	ldw	r19,224(sp)
 8003f30:	d8002905 	stb	zero,164(sp)
 8003f34:	00801984 	movi	r2,102
 8003f38:	8881f926 	beq	r17,r2,8004720 <___vfprintf_internal_r+0x1f84>
 8003f3c:	00801184 	movi	r2,70
 8003f40:	88821c26 	beq	r17,r2,80047b4 <___vfprintf_internal_r+0x2018>
 8003f44:	00801144 	movi	r2,69
 8003f48:	b081ef26 	beq	r22,r2,8004708 <___vfprintf_internal_r+0x1f6c>
 8003f4c:	d8c02a17 	ldw	r3,168(sp)
 8003f50:	d8802104 	addi	r2,sp,132
 8003f54:	d8800315 	stw	r2,12(sp)
 8003f58:	d9403617 	ldw	r5,216(sp)
 8003f5c:	d8802504 	addi	r2,sp,148
 8003f60:	d9002d17 	ldw	r4,180(sp)
 8003f64:	d8800215 	stw	r2,8(sp)
 8003f68:	d8802604 	addi	r2,sp,152
 8003f6c:	d8c00015 	stw	r3,0(sp)
 8003f70:	d8800115 	stw	r2,4(sp)
 8003f74:	01c00084 	movi	r7,2
 8003f78:	980d883a 	mov	r6,r19
 8003f7c:	d8c03c15 	stw	r3,240(sp)
 8003f80:	da003d15 	stw	r8,244(sp)
 8003f84:	80069280 	call	8006928 <_dtoa_r>
 8003f88:	1021883a 	mov	r16,r2
 8003f8c:	008019c4 	movi	r2,103
 8003f90:	d8c03c17 	ldw	r3,240(sp)
 8003f94:	da003d17 	ldw	r8,244(sp)
 8003f98:	88817126 	beq	r17,r2,8004560 <___vfprintf_internal_r+0x1dc4>
 8003f9c:	008011c4 	movi	r2,71
 8003fa0:	88829126 	beq	r17,r2,80049e8 <___vfprintf_internal_r+0x224c>
 8003fa4:	80f9883a 	add	fp,r16,r3
 8003fa8:	d9003617 	ldw	r4,216(sp)
 8003fac:	000d883a 	mov	r6,zero
 8003fb0:	000f883a 	mov	r7,zero
 8003fb4:	980b883a 	mov	r5,r19
 8003fb8:	da003d15 	stw	r8,244(sp)
 8003fbc:	80164740 	call	8016474 <__eqdf2>
 8003fc0:	da003d17 	ldw	r8,244(sp)
 8003fc4:	10018d26 	beq	r2,zero,80045fc <___vfprintf_internal_r+0x1e60>
 8003fc8:	d8802117 	ldw	r2,132(sp)
 8003fcc:	1700062e 	bgeu	r2,fp,8003fe8 <___vfprintf_internal_r+0x184c>
 8003fd0:	01000c04 	movi	r4,48
 8003fd4:	10c00044 	addi	r3,r2,1
 8003fd8:	d8c02115 	stw	r3,132(sp)
 8003fdc:	11000005 	stb	r4,0(r2)
 8003fe0:	d8802117 	ldw	r2,132(sp)
 8003fe4:	173ffb36 	bltu	r2,fp,8003fd4 <__alt_mem_onchip_memory2_0+0xf8002f54>
 8003fe8:	1405c83a 	sub	r2,r2,r16
 8003fec:	d8803315 	stw	r2,204(sp)
 8003ff0:	008011c4 	movi	r2,71
 8003ff4:	b0817626 	beq	r22,r2,80045d0 <___vfprintf_internal_r+0x1e34>
 8003ff8:	00801944 	movi	r2,101
 8003ffc:	1442800e 	bge	r2,r17,8004a00 <___vfprintf_internal_r+0x2264>
 8004000:	d8c02617 	ldw	r3,152(sp)
 8004004:	00801984 	movi	r2,102
 8004008:	d8c03215 	stw	r3,200(sp)
 800400c:	8881fe26 	beq	r17,r2,8004808 <___vfprintf_internal_r+0x206c>
 8004010:	d8c03217 	ldw	r3,200(sp)
 8004014:	d9003317 	ldw	r4,204(sp)
 8004018:	1901dd16 	blt	r3,r4,8004790 <___vfprintf_internal_r+0x1ff4>
 800401c:	9480004c 	andi	r18,r18,1
 8004020:	90022b1e 	bne	r18,zero,80048d0 <___vfprintf_internal_r+0x2134>
 8004024:	1805883a 	mov	r2,r3
 8004028:	18028316 	blt	r3,zero,8004a38 <___vfprintf_internal_r+0x229c>
 800402c:	d8c03217 	ldw	r3,200(sp)
 8004030:	044019c4 	movi	r17,103
 8004034:	d8c02b15 	stw	r3,172(sp)
 8004038:	df002907 	ldb	fp,164(sp)
 800403c:	e001531e 	bne	fp,zero,800458c <___vfprintf_internal_r+0x1df0>
 8004040:	df002783 	ldbu	fp,158(sp)
 8004044:	d8802915 	stw	r2,164(sp)
 8004048:	dc802c17 	ldw	r18,176(sp)
 800404c:	d8002a15 	stw	zero,168(sp)
 8004050:	003baf06 	br	8002f10 <__alt_mem_onchip_memory2_0+0xf8001e90>
 8004054:	d8c02e17 	ldw	r3,184(sp)
 8004058:	d9002e17 	ldw	r4,184(sp)
 800405c:	d9402e17 	ldw	r5,184(sp)
 8004060:	18c00017 	ldw	r3,0(r3)
 8004064:	21000117 	ldw	r4,4(r4)
 8004068:	29400204 	addi	r5,r5,8
 800406c:	d8c03615 	stw	r3,216(sp)
 8004070:	d9003815 	stw	r4,224(sp)
 8004074:	d9402e15 	stw	r5,184(sp)
 8004078:	003b5006 	br	8002dbc <__alt_mem_onchip_memory2_0+0xf8001d3c>
 800407c:	ac400007 	ldb	r17,0(r21)
 8004080:	003a2806 	br	8002924 <__alt_mem_onchip_memory2_0+0xf80018a4>
 8004084:	9080100c 	andi	r2,r18,64
 8004088:	1000a826 	beq	r2,zero,800432c <___vfprintf_internal_r+0x1b90>
 800408c:	d8c02e17 	ldw	r3,184(sp)
 8004090:	002d883a 	mov	r22,zero
 8004094:	1cc0000b 	ldhu	r19,0(r3)
 8004098:	18c00104 	addi	r3,r3,4
 800409c:	d8c02e15 	stw	r3,184(sp)
 80040a0:	003caf06 	br	8003360 <__alt_mem_onchip_memory2_0+0xf80022e0>
 80040a4:	d9002e17 	ldw	r4,184(sp)
 80040a8:	d9402a17 	ldw	r5,168(sp)
 80040ac:	002d883a 	mov	r22,zero
 80040b0:	20800104 	addi	r2,r4,4
 80040b4:	24c00017 	ldw	r19,0(r4)
 80040b8:	283ebb0e 	bge	r5,zero,8003ba8 <__alt_mem_onchip_memory2_0+0xf8002b28>
 80040bc:	003ef106 	br	8003c84 <__alt_mem_onchip_memory2_0+0xf8002c04>
 80040c0:	9080040c 	andi	r2,r18,16
 80040c4:	1000921e 	bne	r2,zero,8004310 <___vfprintf_internal_r+0x1b74>
 80040c8:	9480100c 	andi	r18,r18,64
 80040cc:	90013926 	beq	r18,zero,80045b4 <___vfprintf_internal_r+0x1e18>
 80040d0:	d9402e17 	ldw	r5,184(sp)
 80040d4:	d8c02f17 	ldw	r3,188(sp)
 80040d8:	28800017 	ldw	r2,0(r5)
 80040dc:	29400104 	addi	r5,r5,4
 80040e0:	d9402e15 	stw	r5,184(sp)
 80040e4:	10c0000d 	sth	r3,0(r2)
 80040e8:	0039e406 	br	800287c <__alt_mem_onchip_memory2_0+0xf80017fc>
 80040ec:	9080100c 	andi	r2,r18,64
 80040f0:	10008026 	beq	r2,zero,80042f4 <___vfprintf_internal_r+0x1b58>
 80040f4:	d8802e17 	ldw	r2,184(sp)
 80040f8:	14c0000f 	ldh	r19,0(r2)
 80040fc:	10800104 	addi	r2,r2,4
 8004100:	d8802e15 	stw	r2,184(sp)
 8004104:	982dd7fa 	srai	r22,r19,31
 8004108:	b005883a 	mov	r2,r22
 800410c:	003af706 	br	8002cec <__alt_mem_onchip_memory2_0+0xf8001c6c>
 8004110:	9080100c 	andi	r2,r18,64
 8004114:	d8002785 	stb	zero,158(sp)
 8004118:	10008a1e 	bne	r2,zero,8004344 <___vfprintf_internal_r+0x1ba8>
 800411c:	d9002e17 	ldw	r4,184(sp)
 8004120:	d9402a17 	ldw	r5,168(sp)
 8004124:	002d883a 	mov	r22,zero
 8004128:	20800104 	addi	r2,r4,4
 800412c:	24c00017 	ldw	r19,0(r4)
 8004130:	283e4b0e 	bge	r5,zero,8003a60 <__alt_mem_onchip_memory2_0+0xf80029e0>
 8004134:	9d86b03a 	or	r3,r19,r22
 8004138:	d8802e15 	stw	r2,184(sp)
 800413c:	183e4c1e 	bne	r3,zero,8003a70 <__alt_mem_onchip_memory2_0+0xf80029f0>
 8004140:	0039883a 	mov	fp,zero
 8004144:	0005883a 	mov	r2,zero
 8004148:	003d4006 	br	800364c <__alt_mem_onchip_memory2_0+0xf80025cc>
 800414c:	014200b4 	movhi	r5,2050
 8004150:	2969b984 	addi	r5,r5,-22810
 8004154:	d9402c15 	stw	r5,176(sp)
 8004158:	d9402c17 	ldw	r5,176(sp)
 800415c:	1c47883a 	add	r3,r3,r17
 8004160:	10800044 	addi	r2,r2,1
 8004164:	41400015 	stw	r5,0(r8)
 8004168:	44400115 	stw	r17,4(r8)
 800416c:	d8c02015 	stw	r3,128(sp)
 8004170:	d8801f15 	stw	r2,124(sp)
 8004174:	010001c4 	movi	r4,7
 8004178:	20bec816 	blt	r4,r2,8003c9c <__alt_mem_onchip_memory2_0+0xf8002c1c>
 800417c:	42000204 	addi	r8,r8,8
 8004180:	003ecd06 	br	8003cb8 <__alt_mem_onchip_memory2_0+0xf8002c38>
 8004184:	d9002a17 	ldw	r4,168(sp)
 8004188:	d8002785 	stb	zero,158(sp)
 800418c:	203d2d16 	blt	r4,zero,8003644 <__alt_mem_onchip_memory2_0+0xf80025c4>
 8004190:	00bfdfc4 	movi	r2,-129
 8004194:	90a4703a 	and	r18,r18,r2
 8004198:	003a6106 	br	8002b20 <__alt_mem_onchip_memory2_0+0xf8001aa0>
 800419c:	010200b4 	movhi	r4,2050
 80041a0:	2129b984 	addi	r4,r4,-22810
 80041a4:	d9002c15 	stw	r4,176(sp)
 80041a8:	003bea06 	br	8003154 <__alt_mem_onchip_memory2_0+0xf80020d4>
 80041ac:	d9002d17 	ldw	r4,180(sp)
 80041b0:	d9801e04 	addi	r6,sp,120
 80041b4:	b80b883a 	mov	r5,r23
 80041b8:	8010b580 	call	8010b58 <__sprint_r>
 80041bc:	103a7b1e 	bne	r2,zero,8002bac <__alt_mem_onchip_memory2_0+0xf8001b2c>
 80041c0:	d8c02017 	ldw	r3,128(sp)
 80041c4:	da000404 	addi	r8,sp,16
 80041c8:	003d4106 	br	80036d0 <__alt_mem_onchip_memory2_0+0xf8002650>
 80041cc:	d8801f17 	ldw	r2,124(sp)
 80041d0:	014200b4 	movhi	r5,2050
 80041d4:	01000044 	movi	r4,1
 80041d8:	18c00044 	addi	r3,r3,1
 80041dc:	10800044 	addi	r2,r2,1
 80041e0:	2969b904 	addi	r5,r5,-22812
 80041e4:	41000115 	stw	r4,4(r8)
 80041e8:	41400015 	stw	r5,0(r8)
 80041ec:	d8c02015 	stw	r3,128(sp)
 80041f0:	d8801f15 	stw	r2,124(sp)
 80041f4:	010001c4 	movi	r4,7
 80041f8:	20805c16 	blt	r4,r2,800436c <___vfprintf_internal_r+0x1bd0>
 80041fc:	42000204 	addi	r8,r8,8
 8004200:	8800041e 	bne	r17,zero,8004214 <___vfprintf_internal_r+0x1a78>
 8004204:	d8803317 	ldw	r2,204(sp)
 8004208:	1000021e 	bne	r2,zero,8004214 <___vfprintf_internal_r+0x1a78>
 800420c:	9080004c 	andi	r2,r18,1
 8004210:	103be726 	beq	r2,zero,80031b0 <__alt_mem_onchip_memory2_0+0xf8002130>
 8004214:	d9003717 	ldw	r4,220(sp)
 8004218:	d8801f17 	ldw	r2,124(sp)
 800421c:	d9403417 	ldw	r5,208(sp)
 8004220:	20c7883a 	add	r3,r4,r3
 8004224:	10800044 	addi	r2,r2,1
 8004228:	41000115 	stw	r4,4(r8)
 800422c:	41400015 	stw	r5,0(r8)
 8004230:	d8c02015 	stw	r3,128(sp)
 8004234:	d8801f15 	stw	r2,124(sp)
 8004238:	010001c4 	movi	r4,7
 800423c:	20812116 	blt	r4,r2,80046c4 <___vfprintf_internal_r+0x1f28>
 8004240:	42000204 	addi	r8,r8,8
 8004244:	0463c83a 	sub	r17,zero,r17
 8004248:	0440730e 	bge	zero,r17,8004418 <___vfprintf_internal_r+0x1c7c>
 800424c:	05800404 	movi	r22,16
 8004250:	b440860e 	bge	r22,r17,800446c <___vfprintf_internal_r+0x1cd0>
 8004254:	014200b4 	movhi	r5,2050
 8004258:	2969b984 	addi	r5,r5,-22810
 800425c:	d9402c15 	stw	r5,176(sp)
 8004260:	070001c4 	movi	fp,7
 8004264:	dcc02d17 	ldw	r19,180(sp)
 8004268:	00000306 	br	8004278 <___vfprintf_internal_r+0x1adc>
 800426c:	42000204 	addi	r8,r8,8
 8004270:	8c7ffc04 	addi	r17,r17,-16
 8004274:	b440800e 	bge	r22,r17,8004478 <___vfprintf_internal_r+0x1cdc>
 8004278:	18c00404 	addi	r3,r3,16
 800427c:	10800044 	addi	r2,r2,1
 8004280:	45000015 	stw	r20,0(r8)
 8004284:	45800115 	stw	r22,4(r8)
 8004288:	d8c02015 	stw	r3,128(sp)
 800428c:	d8801f15 	stw	r2,124(sp)
 8004290:	e0bff60e 	bge	fp,r2,800426c <__alt_mem_onchip_memory2_0+0xf80031ec>
 8004294:	d9801e04 	addi	r6,sp,120
 8004298:	b80b883a 	mov	r5,r23
 800429c:	9809883a 	mov	r4,r19
 80042a0:	8010b580 	call	8010b58 <__sprint_r>
 80042a4:	103a411e 	bne	r2,zero,8002bac <__alt_mem_onchip_memory2_0+0xf8001b2c>
 80042a8:	d8c02017 	ldw	r3,128(sp)
 80042ac:	d8801f17 	ldw	r2,124(sp)
 80042b0:	da000404 	addi	r8,sp,16
 80042b4:	003fee06 	br	8004270 <__alt_mem_onchip_memory2_0+0xf80031f0>
 80042b8:	00bfffc4 	movi	r2,-1
 80042bc:	003a3f06 	br	8002bbc <__alt_mem_onchip_memory2_0+0xf8001b3c>
 80042c0:	008011c4 	movi	r2,71
 80042c4:	1440b816 	blt	r2,r17,80045a8 <___vfprintf_internal_r+0x1e0c>
 80042c8:	040200b4 	movhi	r16,2050
 80042cc:	8429ab04 	addi	r16,r16,-22868
 80042d0:	00c000c4 	movi	r3,3
 80042d4:	00bfdfc4 	movi	r2,-129
 80042d8:	d8c02915 	stw	r3,164(sp)
 80042dc:	90a4703a 	and	r18,r18,r2
 80042e0:	df002783 	ldbu	fp,158(sp)
 80042e4:	d8c02b15 	stw	r3,172(sp)
 80042e8:	d8002a15 	stw	zero,168(sp)
 80042ec:	d8003215 	stw	zero,200(sp)
 80042f0:	003b0706 	br	8002f10 <__alt_mem_onchip_memory2_0+0xf8001e90>
 80042f4:	d8c02e17 	ldw	r3,184(sp)
 80042f8:	1cc00017 	ldw	r19,0(r3)
 80042fc:	18c00104 	addi	r3,r3,4
 8004300:	d8c02e15 	stw	r3,184(sp)
 8004304:	982dd7fa 	srai	r22,r19,31
 8004308:	b005883a 	mov	r2,r22
 800430c:	003a7706 	br	8002cec <__alt_mem_onchip_memory2_0+0xf8001c6c>
 8004310:	d8c02e17 	ldw	r3,184(sp)
 8004314:	d9002f17 	ldw	r4,188(sp)
 8004318:	18800017 	ldw	r2,0(r3)
 800431c:	18c00104 	addi	r3,r3,4
 8004320:	d8c02e15 	stw	r3,184(sp)
 8004324:	11000015 	stw	r4,0(r2)
 8004328:	00395406 	br	800287c <__alt_mem_onchip_memory2_0+0xf80017fc>
 800432c:	d9002e17 	ldw	r4,184(sp)
 8004330:	002d883a 	mov	r22,zero
 8004334:	24c00017 	ldw	r19,0(r4)
 8004338:	21000104 	addi	r4,r4,4
 800433c:	d9002e15 	stw	r4,184(sp)
 8004340:	003c0706 	br	8003360 <__alt_mem_onchip_memory2_0+0xf80022e0>
 8004344:	d9402e17 	ldw	r5,184(sp)
 8004348:	d8c02a17 	ldw	r3,168(sp)
 800434c:	002d883a 	mov	r22,zero
 8004350:	28800104 	addi	r2,r5,4
 8004354:	2cc0000b 	ldhu	r19,0(r5)
 8004358:	183dc10e 	bge	r3,zero,8003a60 <__alt_mem_onchip_memory2_0+0xf80029e0>
 800435c:	003f7506 	br	8004134 <__alt_mem_onchip_memory2_0+0xf80030b4>
 8004360:	040200b4 	movhi	r16,2050
 8004364:	8429a904 	addi	r16,r16,-22876
 8004368:	003aa706 	br	8002e08 <__alt_mem_onchip_memory2_0+0xf8001d88>
 800436c:	d9002d17 	ldw	r4,180(sp)
 8004370:	d9801e04 	addi	r6,sp,120
 8004374:	b80b883a 	mov	r5,r23
 8004378:	8010b580 	call	8010b58 <__sprint_r>
 800437c:	103a0b1e 	bne	r2,zero,8002bac <__alt_mem_onchip_memory2_0+0xf8001b2c>
 8004380:	dc402617 	ldw	r17,152(sp)
 8004384:	d8c02017 	ldw	r3,128(sp)
 8004388:	da000404 	addi	r8,sp,16
 800438c:	003f9c06 	br	8004200 <__alt_mem_onchip_memory2_0+0xf8003180>
 8004390:	ac400043 	ldbu	r17,1(r21)
 8004394:	84000814 	ori	r16,r16,32
 8004398:	ad400044 	addi	r21,r21,1
 800439c:	8c403fcc 	andi	r17,r17,255
 80043a0:	8c40201c 	xori	r17,r17,128
 80043a4:	8c7fe004 	addi	r17,r17,-128
 80043a8:	00395e06 	br	8002924 <__alt_mem_onchip_memory2_0+0xf80018a4>
 80043ac:	d8c02e15 	stw	r3,184(sp)
 80043b0:	0039883a 	mov	fp,zero
 80043b4:	003e3506 	br	8003c8c <__alt_mem_onchip_memory2_0+0xf8002c0c>
 80043b8:	d9002d17 	ldw	r4,180(sp)
 80043bc:	d9801e04 	addi	r6,sp,120
 80043c0:	b80b883a 	mov	r5,r23
 80043c4:	8010b580 	call	8010b58 <__sprint_r>
 80043c8:	1039f81e 	bne	r2,zero,8002bac <__alt_mem_onchip_memory2_0+0xf8001b2c>
 80043cc:	d8c02017 	ldw	r3,128(sp)
 80043d0:	da000404 	addi	r8,sp,16
 80043d4:	003cd006 	br	8003718 <__alt_mem_onchip_memory2_0+0xf8002698>
 80043d8:	8009883a 	mov	r4,r16
 80043dc:	df003d15 	stw	fp,244(sp)
 80043e0:	80026fc0 	call	80026fc <strlen>
 80043e4:	d8802b15 	stw	r2,172(sp)
 80043e8:	da003d17 	ldw	r8,244(sp)
 80043ec:	103c200e 	bge	r2,zero,8003470 <__alt_mem_onchip_memory2_0+0xf80023f0>
 80043f0:	0005883a 	mov	r2,zero
 80043f4:	003c1e06 	br	8003470 <__alt_mem_onchip_memory2_0+0xf80023f0>
 80043f8:	d9002d17 	ldw	r4,180(sp)
 80043fc:	d9801e04 	addi	r6,sp,120
 8004400:	b80b883a 	mov	r5,r23
 8004404:	8010b580 	call	8010b58 <__sprint_r>
 8004408:	1039e81e 	bne	r2,zero,8002bac <__alt_mem_onchip_memory2_0+0xf8001b2c>
 800440c:	d8c02017 	ldw	r3,128(sp)
 8004410:	d8801f17 	ldw	r2,124(sp)
 8004414:	da000404 	addi	r8,sp,16
 8004418:	d9403317 	ldw	r5,204(sp)
 800441c:	10800044 	addi	r2,r2,1
 8004420:	44000015 	stw	r16,0(r8)
 8004424:	28c7883a 	add	r3,r5,r3
 8004428:	003b5b06 	br	8003198 <__alt_mem_onchip_memory2_0+0xf8002118>
 800442c:	010200b4 	movhi	r4,2050
 8004430:	2129bd84 	addi	r4,r4,-22794
 8004434:	d9003515 	stw	r4,212(sp)
 8004438:	003af206 	br	8003004 <__alt_mem_onchip_memory2_0+0xf8001f84>
 800443c:	013fffc4 	movi	r4,-1
 8004440:	003a0806 	br	8002c64 <__alt_mem_onchip_memory2_0+0xf8001be4>
 8004444:	0023883a 	mov	r17,zero
 8004448:	003d9d06 	br	8003ac0 <__alt_mem_onchip_memory2_0+0xf8002a40>
 800444c:	d9002d17 	ldw	r4,180(sp)
 8004450:	d9801e04 	addi	r6,sp,120
 8004454:	b80b883a 	mov	r5,r23
 8004458:	8010b580 	call	8010b58 <__sprint_r>
 800445c:	1039d31e 	bne	r2,zero,8002bac <__alt_mem_onchip_memory2_0+0xf8001b2c>
 8004460:	d8c02017 	ldw	r3,128(sp)
 8004464:	da000404 	addi	r8,sp,16
 8004468:	003d9406 	br	8003abc <__alt_mem_onchip_memory2_0+0xf8002a3c>
 800446c:	010200b4 	movhi	r4,2050
 8004470:	2129b984 	addi	r4,r4,-22810
 8004474:	d9002c15 	stw	r4,176(sp)
 8004478:	d9002c17 	ldw	r4,176(sp)
 800447c:	1c47883a 	add	r3,r3,r17
 8004480:	10800044 	addi	r2,r2,1
 8004484:	41000015 	stw	r4,0(r8)
 8004488:	44400115 	stw	r17,4(r8)
 800448c:	d8c02015 	stw	r3,128(sp)
 8004490:	d8801f15 	stw	r2,124(sp)
 8004494:	010001c4 	movi	r4,7
 8004498:	20bfd716 	blt	r4,r2,80043f8 <__alt_mem_onchip_memory2_0+0xf8003378>
 800449c:	42000204 	addi	r8,r8,8
 80044a0:	003fdd06 	br	8004418 <__alt_mem_onchip_memory2_0+0xf8003398>
 80044a4:	d9002d17 	ldw	r4,180(sp)
 80044a8:	d9801e04 	addi	r6,sp,120
 80044ac:	b80b883a 	mov	r5,r23
 80044b0:	8010b580 	call	8010b58 <__sprint_r>
 80044b4:	1039bd1e 	bne	r2,zero,8002bac <__alt_mem_onchip_memory2_0+0xf8001b2c>
 80044b8:	d8802617 	ldw	r2,152(sp)
 80044bc:	d8c02017 	ldw	r3,128(sp)
 80044c0:	da000404 	addi	r8,sp,16
 80044c4:	003e1006 	br	8003d08 <__alt_mem_onchip_memory2_0+0xf8002c88>
 80044c8:	00800044 	movi	r2,1
 80044cc:	10803fcc 	andi	r2,r2,255
 80044d0:	00c00044 	movi	r3,1
 80044d4:	10fa0d26 	beq	r2,r3,8002d0c <__alt_mem_onchip_memory2_0+0xf8001c8c>
 80044d8:	00c00084 	movi	r3,2
 80044dc:	10fbaf26 	beq	r2,r3,800339c <__alt_mem_onchip_memory2_0+0xf800231c>
 80044e0:	003a6d06 	br	8002e98 <__alt_mem_onchip_memory2_0+0xf8001e18>
 80044e4:	010200b4 	movhi	r4,2050
 80044e8:	2129bd84 	addi	r4,r4,-22794
 80044ec:	d9003515 	stw	r4,212(sp)
 80044f0:	003b5406 	br	8003244 <__alt_mem_onchip_memory2_0+0xf80021c4>
 80044f4:	d8802a17 	ldw	r2,168(sp)
 80044f8:	00c00184 	movi	r3,6
 80044fc:	1880012e 	bgeu	r3,r2,8004504 <___vfprintf_internal_r+0x1d68>
 8004500:	1805883a 	mov	r2,r3
 8004504:	d8802b15 	stw	r2,172(sp)
 8004508:	1000ef16 	blt	r2,zero,80048c8 <___vfprintf_internal_r+0x212c>
 800450c:	040200b4 	movhi	r16,2050
 8004510:	d8802915 	stw	r2,164(sp)
 8004514:	dcc02e15 	stw	r19,184(sp)
 8004518:	d8002a15 	stw	zero,168(sp)
 800451c:	d8003215 	stw	zero,200(sp)
 8004520:	8429b704 	addi	r16,r16,-22820
 8004524:	0039883a 	mov	fp,zero
 8004528:	003a8006 	br	8002f2c <__alt_mem_onchip_memory2_0+0xf8001eac>
 800452c:	0021883a 	mov	r16,zero
 8004530:	003e0706 	br	8003d50 <__alt_mem_onchip_memory2_0+0xf8002cd0>
 8004534:	d9002d17 	ldw	r4,180(sp)
 8004538:	d9801e04 	addi	r6,sp,120
 800453c:	b80b883a 	mov	r5,r23
 8004540:	8010b580 	call	8010b58 <__sprint_r>
 8004544:	1039991e 	bne	r2,zero,8002bac <__alt_mem_onchip_memory2_0+0xf8001b2c>
 8004548:	d8802617 	ldw	r2,152(sp)
 800454c:	d9403317 	ldw	r5,204(sp)
 8004550:	d8c02017 	ldw	r3,128(sp)
 8004554:	da000404 	addi	r8,sp,16
 8004558:	2885c83a 	sub	r2,r5,r2
 800455c:	003dfb06 	br	8003d4c <__alt_mem_onchip_memory2_0+0xf8002ccc>
 8004560:	9080004c 	andi	r2,r18,1
 8004564:	103e8f1e 	bne	r2,zero,8003fa4 <__alt_mem_onchip_memory2_0+0xf8002f24>
 8004568:	d8802117 	ldw	r2,132(sp)
 800456c:	003e9e06 	br	8003fe8 <__alt_mem_onchip_memory2_0+0xf8002f68>
 8004570:	1025883a 	mov	r18,r2
 8004574:	0039883a 	mov	fp,zero
 8004578:	00800084 	movi	r2,2
 800457c:	003fd306 	br	80044cc <__alt_mem_onchip_memory2_0+0xf800344c>
 8004580:	07000b44 	movi	fp,45
 8004584:	df002785 	stb	fp,158(sp)
 8004588:	003a1b06 	br	8002df8 <__alt_mem_onchip_memory2_0+0xf8001d78>
 800458c:	00c00b44 	movi	r3,45
 8004590:	d8c02785 	stb	r3,158(sp)
 8004594:	d8802915 	stw	r2,164(sp)
 8004598:	dc802c17 	ldw	r18,176(sp)
 800459c:	d8002a15 	stw	zero,168(sp)
 80045a0:	07000b44 	movi	fp,45
 80045a4:	003a5e06 	br	8002f20 <__alt_mem_onchip_memory2_0+0xf8001ea0>
 80045a8:	040200b4 	movhi	r16,2050
 80045ac:	8429ac04 	addi	r16,r16,-22864
 80045b0:	003f4706 	br	80042d0 <__alt_mem_onchip_memory2_0+0xf8003250>
 80045b4:	d9002e17 	ldw	r4,184(sp)
 80045b8:	d9402f17 	ldw	r5,188(sp)
 80045bc:	20800017 	ldw	r2,0(r4)
 80045c0:	21000104 	addi	r4,r4,4
 80045c4:	d9002e15 	stw	r4,184(sp)
 80045c8:	11400015 	stw	r5,0(r2)
 80045cc:	0038ab06 	br	800287c <__alt_mem_onchip_memory2_0+0xf80017fc>
 80045d0:	dd802617 	ldw	r22,152(sp)
 80045d4:	00bfff44 	movi	r2,-3
 80045d8:	b0801c16 	blt	r22,r2,800464c <___vfprintf_internal_r+0x1eb0>
 80045dc:	d9402a17 	ldw	r5,168(sp)
 80045e0:	2d801a16 	blt	r5,r22,800464c <___vfprintf_internal_r+0x1eb0>
 80045e4:	dd803215 	stw	r22,200(sp)
 80045e8:	003e8906 	br	8004010 <__alt_mem_onchip_memory2_0+0xf8002f90>
 80045ec:	010200b4 	movhi	r4,2050
 80045f0:	2129b984 	addi	r4,r4,-22810
 80045f4:	d9002c15 	stw	r4,176(sp)
 80045f8:	003c9106 	br	8003840 <__alt_mem_onchip_memory2_0+0xf80027c0>
 80045fc:	e005883a 	mov	r2,fp
 8004600:	003e7906 	br	8003fe8 <__alt_mem_onchip_memory2_0+0xf8002f68>
 8004604:	d9002a17 	ldw	r4,168(sp)
 8004608:	df002783 	ldbu	fp,158(sp)
 800460c:	dcc02e15 	stw	r19,184(sp)
 8004610:	d9002915 	stw	r4,164(sp)
 8004614:	d9002b15 	stw	r4,172(sp)
 8004618:	d8002a15 	stw	zero,168(sp)
 800461c:	d8003215 	stw	zero,200(sp)
 8004620:	003a3b06 	br	8002f10 <__alt_mem_onchip_memory2_0+0xf8001e90>
 8004624:	9080004c 	andi	r2,r18,1
 8004628:	0039883a 	mov	fp,zero
 800462c:	10000426 	beq	r2,zero,8004640 <___vfprintf_internal_r+0x1ea4>
 8004630:	00800c04 	movi	r2,48
 8004634:	dc001dc4 	addi	r16,sp,119
 8004638:	d8801dc5 	stb	r2,119(sp)
 800463c:	003b6406 	br	80033d0 <__alt_mem_onchip_memory2_0+0xf8002350>
 8004640:	d8002b15 	stw	zero,172(sp)
 8004644:	dc001e04 	addi	r16,sp,120
 8004648:	003a2b06 	br	8002ef8 <__alt_mem_onchip_memory2_0+0xf8001e78>
 800464c:	8c7fff84 	addi	r17,r17,-2
 8004650:	b5bfffc4 	addi	r22,r22,-1
 8004654:	dd802615 	stw	r22,152(sp)
 8004658:	dc4022c5 	stb	r17,139(sp)
 800465c:	b000bf16 	blt	r22,zero,800495c <___vfprintf_internal_r+0x21c0>
 8004660:	00800ac4 	movi	r2,43
 8004664:	d8802305 	stb	r2,140(sp)
 8004668:	00800244 	movi	r2,9
 800466c:	15807016 	blt	r2,r22,8004830 <___vfprintf_internal_r+0x2094>
 8004670:	00800c04 	movi	r2,48
 8004674:	b5800c04 	addi	r22,r22,48
 8004678:	d8802345 	stb	r2,141(sp)
 800467c:	dd802385 	stb	r22,142(sp)
 8004680:	d88023c4 	addi	r2,sp,143
 8004684:	df0022c4 	addi	fp,sp,139
 8004688:	d8c03317 	ldw	r3,204(sp)
 800468c:	1739c83a 	sub	fp,r2,fp
 8004690:	d9003317 	ldw	r4,204(sp)
 8004694:	e0c7883a 	add	r3,fp,r3
 8004698:	df003a15 	stw	fp,232(sp)
 800469c:	d8c02b15 	stw	r3,172(sp)
 80046a0:	00800044 	movi	r2,1
 80046a4:	1100b30e 	bge	r2,r4,8004974 <___vfprintf_internal_r+0x21d8>
 80046a8:	d8c02b17 	ldw	r3,172(sp)
 80046ac:	18c00044 	addi	r3,r3,1
 80046b0:	d8c02b15 	stw	r3,172(sp)
 80046b4:	1805883a 	mov	r2,r3
 80046b8:	1800ac16 	blt	r3,zero,800496c <___vfprintf_internal_r+0x21d0>
 80046bc:	d8003215 	stw	zero,200(sp)
 80046c0:	003e5d06 	br	8004038 <__alt_mem_onchip_memory2_0+0xf8002fb8>
 80046c4:	d9002d17 	ldw	r4,180(sp)
 80046c8:	d9801e04 	addi	r6,sp,120
 80046cc:	b80b883a 	mov	r5,r23
 80046d0:	8010b580 	call	8010b58 <__sprint_r>
 80046d4:	1039351e 	bne	r2,zero,8002bac <__alt_mem_onchip_memory2_0+0xf8001b2c>
 80046d8:	dc402617 	ldw	r17,152(sp)
 80046dc:	d8c02017 	ldw	r3,128(sp)
 80046e0:	d8801f17 	ldw	r2,124(sp)
 80046e4:	da000404 	addi	r8,sp,16
 80046e8:	003ed606 	br	8004244 <__alt_mem_onchip_memory2_0+0xf80031c4>
 80046ec:	182b883a 	mov	r21,r3
 80046f0:	d8002a15 	stw	zero,168(sp)
 80046f4:	00388c06 	br	8002928 <__alt_mem_onchip_memory2_0+0xf80018a8>
 80046f8:	d8802a17 	ldw	r2,168(sp)
 80046fc:	103e071e 	bne	r2,zero,8003f1c <__alt_mem_onchip_memory2_0+0xf8002e9c>
 8004700:	dc002a15 	stw	r16,168(sp)
 8004704:	003e0506 	br	8003f1c <__alt_mem_onchip_memory2_0+0xf8002e9c>
 8004708:	d9002a17 	ldw	r4,168(sp)
 800470c:	20c00044 	addi	r3,r4,1
 8004710:	003e0f06 	br	8003f50 <__alt_mem_onchip_memory2_0+0xf8002ed0>
 8004714:	01400184 	movi	r5,6
 8004718:	d9402a15 	stw	r5,168(sp)
 800471c:	003dff06 	br	8003f1c <__alt_mem_onchip_memory2_0+0xf8002e9c>
 8004720:	d8802104 	addi	r2,sp,132
 8004724:	d8800315 	stw	r2,12(sp)
 8004728:	d8802504 	addi	r2,sp,148
 800472c:	d8800215 	stw	r2,8(sp)
 8004730:	d8802604 	addi	r2,sp,152
 8004734:	d8800115 	stw	r2,4(sp)
 8004738:	d8802a17 	ldw	r2,168(sp)
 800473c:	d9403617 	ldw	r5,216(sp)
 8004740:	d9002d17 	ldw	r4,180(sp)
 8004744:	d8800015 	stw	r2,0(sp)
 8004748:	01c000c4 	movi	r7,3
 800474c:	980d883a 	mov	r6,r19
 8004750:	da003d15 	stw	r8,244(sp)
 8004754:	80069280 	call	8006928 <_dtoa_r>
 8004758:	d8c02a17 	ldw	r3,168(sp)
 800475c:	da003d17 	ldw	r8,244(sp)
 8004760:	1021883a 	mov	r16,r2
 8004764:	10f9883a 	add	fp,r2,r3
 8004768:	81000007 	ldb	r4,0(r16)
 800476c:	00800c04 	movi	r2,48
 8004770:	20805e26 	beq	r4,r2,80048ec <___vfprintf_internal_r+0x2150>
 8004774:	d8c02617 	ldw	r3,152(sp)
 8004778:	e0f9883a 	add	fp,fp,r3
 800477c:	003e0a06 	br	8003fa8 <__alt_mem_onchip_memory2_0+0xf8002f28>
 8004780:	00c00b44 	movi	r3,45
 8004784:	24e0003c 	xorhi	r19,r4,32768
 8004788:	d8c02905 	stb	r3,164(sp)
 800478c:	003de906 	br	8003f34 <__alt_mem_onchip_memory2_0+0xf8002eb4>
 8004790:	d8c03217 	ldw	r3,200(sp)
 8004794:	00c07a0e 	bge	zero,r3,8004980 <___vfprintf_internal_r+0x21e4>
 8004798:	00800044 	movi	r2,1
 800479c:	d9003317 	ldw	r4,204(sp)
 80047a0:	1105883a 	add	r2,r2,r4
 80047a4:	d8802b15 	stw	r2,172(sp)
 80047a8:	10004e16 	blt	r2,zero,80048e4 <___vfprintf_internal_r+0x2148>
 80047ac:	044019c4 	movi	r17,103
 80047b0:	003e2106 	br	8004038 <__alt_mem_onchip_memory2_0+0xf8002fb8>
 80047b4:	d9002a17 	ldw	r4,168(sp)
 80047b8:	d8802104 	addi	r2,sp,132
 80047bc:	d8800315 	stw	r2,12(sp)
 80047c0:	d9000015 	stw	r4,0(sp)
 80047c4:	d8802504 	addi	r2,sp,148
 80047c8:	d9403617 	ldw	r5,216(sp)
 80047cc:	d9002d17 	ldw	r4,180(sp)
 80047d0:	d8800215 	stw	r2,8(sp)
 80047d4:	d8802604 	addi	r2,sp,152
 80047d8:	d8800115 	stw	r2,4(sp)
 80047dc:	01c000c4 	movi	r7,3
 80047e0:	980d883a 	mov	r6,r19
 80047e4:	da003d15 	stw	r8,244(sp)
 80047e8:	80069280 	call	8006928 <_dtoa_r>
 80047ec:	d8c02a17 	ldw	r3,168(sp)
 80047f0:	da003d17 	ldw	r8,244(sp)
 80047f4:	1021883a 	mov	r16,r2
 80047f8:	00801184 	movi	r2,70
 80047fc:	80f9883a 	add	fp,r16,r3
 8004800:	88bfd926 	beq	r17,r2,8004768 <__alt_mem_onchip_memory2_0+0xf80036e8>
 8004804:	003de806 	br	8003fa8 <__alt_mem_onchip_memory2_0+0xf8002f28>
 8004808:	d9002a17 	ldw	r4,168(sp)
 800480c:	00c04d0e 	bge	zero,r3,8004944 <___vfprintf_internal_r+0x21a8>
 8004810:	2000441e 	bne	r4,zero,8004924 <___vfprintf_internal_r+0x2188>
 8004814:	9480004c 	andi	r18,r18,1
 8004818:	9000421e 	bne	r18,zero,8004924 <___vfprintf_internal_r+0x2188>
 800481c:	1805883a 	mov	r2,r3
 8004820:	18006f16 	blt	r3,zero,80049e0 <___vfprintf_internal_r+0x2244>
 8004824:	d8c03217 	ldw	r3,200(sp)
 8004828:	d8c02b15 	stw	r3,172(sp)
 800482c:	003e0206 	br	8004038 <__alt_mem_onchip_memory2_0+0xf8002fb8>
 8004830:	df0022c4 	addi	fp,sp,139
 8004834:	dc002a15 	stw	r16,168(sp)
 8004838:	4027883a 	mov	r19,r8
 800483c:	e021883a 	mov	r16,fp
 8004840:	b009883a 	mov	r4,r22
 8004844:	01400284 	movi	r5,10
 8004848:	80017d40 	call	80017d4 <__modsi3>
 800484c:	10800c04 	addi	r2,r2,48
 8004850:	843fffc4 	addi	r16,r16,-1
 8004854:	b009883a 	mov	r4,r22
 8004858:	01400284 	movi	r5,10
 800485c:	80800005 	stb	r2,0(r16)
 8004860:	80017500 	call	8001750 <__divsi3>
 8004864:	102d883a 	mov	r22,r2
 8004868:	00800244 	movi	r2,9
 800486c:	15bff416 	blt	r2,r22,8004840 <__alt_mem_onchip_memory2_0+0xf80037c0>
 8004870:	9811883a 	mov	r8,r19
 8004874:	b0800c04 	addi	r2,r22,48
 8004878:	8027883a 	mov	r19,r16
 800487c:	997fffc4 	addi	r5,r19,-1
 8004880:	98bfffc5 	stb	r2,-1(r19)
 8004884:	dc002a17 	ldw	r16,168(sp)
 8004888:	2f006d2e 	bgeu	r5,fp,8004a40 <___vfprintf_internal_r+0x22a4>
 800488c:	d9c02384 	addi	r7,sp,142
 8004890:	3ccfc83a 	sub	r7,r7,r19
 8004894:	d9002344 	addi	r4,sp,141
 8004898:	e1cf883a 	add	r7,fp,r7
 800489c:	00000106 	br	80048a4 <___vfprintf_internal_r+0x2108>
 80048a0:	28800003 	ldbu	r2,0(r5)
 80048a4:	20800005 	stb	r2,0(r4)
 80048a8:	21000044 	addi	r4,r4,1
 80048ac:	29400044 	addi	r5,r5,1
 80048b0:	393ffb1e 	bne	r7,r4,80048a0 <__alt_mem_onchip_memory2_0+0xf8003820>
 80048b4:	d8802304 	addi	r2,sp,140
 80048b8:	14c5c83a 	sub	r2,r2,r19
 80048bc:	d8c02344 	addi	r3,sp,141
 80048c0:	1885883a 	add	r2,r3,r2
 80048c4:	003f7006 	br	8004688 <__alt_mem_onchip_memory2_0+0xf8003608>
 80048c8:	0005883a 	mov	r2,zero
 80048cc:	003f0f06 	br	800450c <__alt_mem_onchip_memory2_0+0xf800348c>
 80048d0:	d8c03217 	ldw	r3,200(sp)
 80048d4:	18c00044 	addi	r3,r3,1
 80048d8:	d8c02b15 	stw	r3,172(sp)
 80048dc:	1805883a 	mov	r2,r3
 80048e0:	183fb20e 	bge	r3,zero,80047ac <__alt_mem_onchip_memory2_0+0xf800372c>
 80048e4:	0005883a 	mov	r2,zero
 80048e8:	003fb006 	br	80047ac <__alt_mem_onchip_memory2_0+0xf800372c>
 80048ec:	d9003617 	ldw	r4,216(sp)
 80048f0:	000d883a 	mov	r6,zero
 80048f4:	000f883a 	mov	r7,zero
 80048f8:	980b883a 	mov	r5,r19
 80048fc:	d8c03c15 	stw	r3,240(sp)
 8004900:	da003d15 	stw	r8,244(sp)
 8004904:	80164740 	call	8016474 <__eqdf2>
 8004908:	d8c03c17 	ldw	r3,240(sp)
 800490c:	da003d17 	ldw	r8,244(sp)
 8004910:	103f9826 	beq	r2,zero,8004774 <__alt_mem_onchip_memory2_0+0xf80036f4>
 8004914:	00800044 	movi	r2,1
 8004918:	10c7c83a 	sub	r3,r2,r3
 800491c:	d8c02615 	stw	r3,152(sp)
 8004920:	003f9506 	br	8004778 <__alt_mem_onchip_memory2_0+0xf80036f8>
 8004924:	d9002a17 	ldw	r4,168(sp)
 8004928:	d8c03217 	ldw	r3,200(sp)
 800492c:	20800044 	addi	r2,r4,1
 8004930:	1885883a 	add	r2,r3,r2
 8004934:	d8802b15 	stw	r2,172(sp)
 8004938:	103dbf0e 	bge	r2,zero,8004038 <__alt_mem_onchip_memory2_0+0xf8002fb8>
 800493c:	0005883a 	mov	r2,zero
 8004940:	003dbd06 	br	8004038 <__alt_mem_onchip_memory2_0+0xf8002fb8>
 8004944:	2000201e 	bne	r4,zero,80049c8 <___vfprintf_internal_r+0x222c>
 8004948:	9480004c 	andi	r18,r18,1
 800494c:	90001e1e 	bne	r18,zero,80049c8 <___vfprintf_internal_r+0x222c>
 8004950:	00800044 	movi	r2,1
 8004954:	d8802b15 	stw	r2,172(sp)
 8004958:	003db706 	br	8004038 <__alt_mem_onchip_memory2_0+0xf8002fb8>
 800495c:	00800b44 	movi	r2,45
 8004960:	05adc83a 	sub	r22,zero,r22
 8004964:	d8802305 	stb	r2,140(sp)
 8004968:	003f3f06 	br	8004668 <__alt_mem_onchip_memory2_0+0xf80035e8>
 800496c:	0005883a 	mov	r2,zero
 8004970:	003f5206 	br	80046bc <__alt_mem_onchip_memory2_0+0xf800363c>
 8004974:	90a4703a 	and	r18,r18,r2
 8004978:	903f4e26 	beq	r18,zero,80046b4 <__alt_mem_onchip_memory2_0+0xf8003634>
 800497c:	003f4a06 	br	80046a8 <__alt_mem_onchip_memory2_0+0xf8003628>
 8004980:	00800084 	movi	r2,2
 8004984:	10c5c83a 	sub	r2,r2,r3
 8004988:	003f8406 	br	800479c <__alt_mem_onchip_memory2_0+0xf800371c>
 800498c:	d9402e17 	ldw	r5,184(sp)
 8004990:	d9002e17 	ldw	r4,184(sp)
 8004994:	ac400043 	ldbu	r17,1(r21)
 8004998:	29400017 	ldw	r5,0(r5)
 800499c:	20800104 	addi	r2,r4,4
 80049a0:	d8802e15 	stw	r2,184(sp)
 80049a4:	d9402a15 	stw	r5,168(sp)
 80049a8:	182b883a 	mov	r21,r3
 80049ac:	283e7b0e 	bge	r5,zero,800439c <__alt_mem_onchip_memory2_0+0xf800331c>
 80049b0:	8c403fcc 	andi	r17,r17,255
 80049b4:	017fffc4 	movi	r5,-1
 80049b8:	8c40201c 	xori	r17,r17,128
 80049bc:	d9402a15 	stw	r5,168(sp)
 80049c0:	8c7fe004 	addi	r17,r17,-128
 80049c4:	0037d706 	br	8002924 <__alt_mem_onchip_memory2_0+0xf80018a4>
 80049c8:	d8c02a17 	ldw	r3,168(sp)
 80049cc:	18c00084 	addi	r3,r3,2
 80049d0:	d8c02b15 	stw	r3,172(sp)
 80049d4:	1805883a 	mov	r2,r3
 80049d8:	183d970e 	bge	r3,zero,8004038 <__alt_mem_onchip_memory2_0+0xf8002fb8>
 80049dc:	003fd706 	br	800493c <__alt_mem_onchip_memory2_0+0xf80038bc>
 80049e0:	0005883a 	mov	r2,zero
 80049e4:	003f8f06 	br	8004824 <__alt_mem_onchip_memory2_0+0xf80037a4>
 80049e8:	9080004c 	andi	r2,r18,1
 80049ec:	103f821e 	bne	r2,zero,80047f8 <__alt_mem_onchip_memory2_0+0xf8003778>
 80049f0:	d8802117 	ldw	r2,132(sp)
 80049f4:	1405c83a 	sub	r2,r2,r16
 80049f8:	d8803315 	stw	r2,204(sp)
 80049fc:	b47ef426 	beq	r22,r17,80045d0 <__alt_mem_onchip_memory2_0+0xf8003550>
 8004a00:	dd802617 	ldw	r22,152(sp)
 8004a04:	003f1206 	br	8004650 <__alt_mem_onchip_memory2_0+0xf80035d0>
 8004a08:	d8c02b03 	ldbu	r3,172(sp)
 8004a0c:	d8c02785 	stb	r3,158(sp)
 8004a10:	0038df06 	br	8002d90 <__alt_mem_onchip_memory2_0+0xf8001d10>
 8004a14:	d8c02b03 	ldbu	r3,172(sp)
 8004a18:	d8c02785 	stb	r3,158(sp)
 8004a1c:	0038aa06 	br	8002cc8 <__alt_mem_onchip_memory2_0+0xf8001c48>
 8004a20:	d8c02b03 	ldbu	r3,172(sp)
 8004a24:	d8c02785 	stb	r3,158(sp)
 8004a28:	003a4306 	br	8003338 <__alt_mem_onchip_memory2_0+0xf80022b8>
 8004a2c:	d8c02b03 	ldbu	r3,172(sp)
 8004a30:	d8c02785 	stb	r3,158(sp)
 8004a34:	003af506 	br	800360c <__alt_mem_onchip_memory2_0+0xf800258c>
 8004a38:	0005883a 	mov	r2,zero
 8004a3c:	003d7b06 	br	800402c <__alt_mem_onchip_memory2_0+0xf8002fac>
 8004a40:	d8802344 	addi	r2,sp,141
 8004a44:	003f1006 	br	8004688 <__alt_mem_onchip_memory2_0+0xf8003608>
 8004a48:	d8c02b03 	ldbu	r3,172(sp)
 8004a4c:	d8c02785 	stb	r3,158(sp)
 8004a50:	0038fd06 	br	8002e48 <__alt_mem_onchip_memory2_0+0xf8001dc8>
 8004a54:	d8c02b03 	ldbu	r3,172(sp)
 8004a58:	d8c02785 	stb	r3,158(sp)
 8004a5c:	003a9706 	br	80034bc <__alt_mem_onchip_memory2_0+0xf800243c>
 8004a60:	d8c02b03 	ldbu	r3,172(sp)
 8004a64:	d8c02785 	stb	r3,158(sp)
 8004a68:	003a1806 	br	80032cc <__alt_mem_onchip_memory2_0+0xf800224c>
 8004a6c:	d8c02b03 	ldbu	r3,172(sp)
 8004a70:	d8c02785 	stb	r3,158(sp)
 8004a74:	003abe06 	br	8003570 <__alt_mem_onchip_memory2_0+0xf80024f0>

08004a78 <__vfprintf_internal>:
 8004a78:	008200b4 	movhi	r2,2050
 8004a7c:	10b37704 	addi	r2,r2,-12836
 8004a80:	300f883a 	mov	r7,r6
 8004a84:	280d883a 	mov	r6,r5
 8004a88:	200b883a 	mov	r5,r4
 8004a8c:	11000017 	ldw	r4,0(r2)
 8004a90:	800279c1 	jmpi	800279c <___vfprintf_internal_r>

08004a94 <__sbprintf>:
 8004a94:	2880030b 	ldhu	r2,12(r5)
 8004a98:	2ac01917 	ldw	r11,100(r5)
 8004a9c:	2a80038b 	ldhu	r10,14(r5)
 8004aa0:	2a400717 	ldw	r9,28(r5)
 8004aa4:	2a000917 	ldw	r8,36(r5)
 8004aa8:	defee204 	addi	sp,sp,-1144
 8004aac:	00c10004 	movi	r3,1024
 8004ab0:	dc011a15 	stw	r16,1128(sp)
 8004ab4:	10bfff4c 	andi	r2,r2,65533
 8004ab8:	2821883a 	mov	r16,r5
 8004abc:	d8cb883a 	add	r5,sp,r3
 8004ac0:	dc811c15 	stw	r18,1136(sp)
 8004ac4:	dc411b15 	stw	r17,1132(sp)
 8004ac8:	dfc11d15 	stw	ra,1140(sp)
 8004acc:	2025883a 	mov	r18,r4
 8004ad0:	d881030d 	sth	r2,1036(sp)
 8004ad4:	dac11915 	stw	r11,1124(sp)
 8004ad8:	da81038d 	sth	r10,1038(sp)
 8004adc:	da410715 	stw	r9,1052(sp)
 8004ae0:	da010915 	stw	r8,1060(sp)
 8004ae4:	dec10015 	stw	sp,1024(sp)
 8004ae8:	dec10415 	stw	sp,1040(sp)
 8004aec:	d8c10215 	stw	r3,1032(sp)
 8004af0:	d8c10515 	stw	r3,1044(sp)
 8004af4:	d8010615 	stw	zero,1048(sp)
 8004af8:	800279c0 	call	800279c <___vfprintf_internal_r>
 8004afc:	1023883a 	mov	r17,r2
 8004b00:	10000416 	blt	r2,zero,8004b14 <__sbprintf+0x80>
 8004b04:	d9410004 	addi	r5,sp,1024
 8004b08:	9009883a 	mov	r4,r18
 8004b0c:	80081cc0 	call	80081cc <_fflush_r>
 8004b10:	10000d1e 	bne	r2,zero,8004b48 <__sbprintf+0xb4>
 8004b14:	d881030b 	ldhu	r2,1036(sp)
 8004b18:	1080100c 	andi	r2,r2,64
 8004b1c:	10000326 	beq	r2,zero,8004b2c <__sbprintf+0x98>
 8004b20:	8080030b 	ldhu	r2,12(r16)
 8004b24:	10801014 	ori	r2,r2,64
 8004b28:	8080030d 	sth	r2,12(r16)
 8004b2c:	8805883a 	mov	r2,r17
 8004b30:	dfc11d17 	ldw	ra,1140(sp)
 8004b34:	dc811c17 	ldw	r18,1136(sp)
 8004b38:	dc411b17 	ldw	r17,1132(sp)
 8004b3c:	dc011a17 	ldw	r16,1128(sp)
 8004b40:	dec11e04 	addi	sp,sp,1144
 8004b44:	f800283a 	ret
 8004b48:	047fffc4 	movi	r17,-1
 8004b4c:	003ff106 	br	8004b14 <__alt_mem_onchip_memory2_0+0xf8003a94>

08004b50 <__svfscanf_r>:
 8004b50:	2880030b 	ldhu	r2,12(r5)
 8004b54:	deff4b04 	addi	sp,sp,-724
 8004b58:	df00b315 	stw	fp,716(sp)
 8004b5c:	ddc0b215 	stw	r23,712(sp)
 8004b60:	dfc0b415 	stw	ra,720(sp)
 8004b64:	dd80b115 	stw	r22,708(sp)
 8004b68:	dd40b015 	stw	r21,704(sp)
 8004b6c:	dd00af15 	stw	r20,700(sp)
 8004b70:	dcc0ae15 	stw	r19,696(sp)
 8004b74:	dc80ad15 	stw	r18,692(sp)
 8004b78:	dc40ac15 	stw	r17,688(sp)
 8004b7c:	dc00ab15 	stw	r16,684(sp)
 8004b80:	10c8000c 	andi	r3,r2,8192
 8004b84:	d9c09c15 	stw	r7,624(sp)
 8004b88:	2839883a 	mov	fp,r5
 8004b8c:	202f883a 	mov	r23,r4
 8004b90:	1800061e 	bne	r3,zero,8004bac <__svfscanf_r+0x5c>
 8004b94:	29001917 	ldw	r4,100(r5)
 8004b98:	00f7ffc4 	movi	r3,-8193
 8004b9c:	10880014 	ori	r2,r2,8192
 8004ba0:	20c6703a 	and	r3,r4,r3
 8004ba4:	2880030d 	sth	r2,12(r5)
 8004ba8:	28c01915 	stw	r3,100(r5)
 8004bac:	30800003 	ldbu	r2,0(r6)
 8004bb0:	0021883a 	mov	r16,zero
 8004bb4:	058200b4 	movhi	r22,2050
 8004bb8:	d800a115 	stw	zero,644(sp)
 8004bbc:	d8009e15 	stw	zero,632(sp)
 8004bc0:	d800a015 	stw	zero,640(sp)
 8004bc4:	d8809b15 	stw	r2,620(sp)
 8004bc8:	b5b37804 	addi	r22,r22,-12832
 8004bcc:	8025883a 	mov	r18,r16
 8004bd0:	e027883a 	mov	r19,fp
 8004bd4:	35000044 	addi	r20,r6,1
 8004bd8:	10001e26 	beq	r2,zero,8004c54 <__svfscanf_r+0x104>
 8004bdc:	b4000017 	ldw	r16,0(r22)
 8004be0:	8087883a 	add	r3,r16,r2
 8004be4:	18c00043 	ldbu	r3,1(r3)
 8004be8:	18c0020c 	andi	r3,r3,8
 8004bec:	18001b26 	beq	r3,zero,8004c5c <__svfscanf_r+0x10c>
 8004bf0:	98800117 	ldw	r2,4(r19)
 8004bf4:	00800e0e 	bge	zero,r2,8004c30 <__svfscanf_r+0xe0>
 8004bf8:	98c00017 	ldw	r3,0(r19)
 8004bfc:	b1000017 	ldw	r4,0(r22)
 8004c00:	18800003 	ldbu	r2,0(r3)
 8004c04:	2085883a 	add	r2,r4,r2
 8004c08:	10800043 	ldbu	r2,1(r2)
 8004c0c:	1080020c 	andi	r2,r2,8
 8004c10:	10000b26 	beq	r2,zero,8004c40 <__svfscanf_r+0xf0>
 8004c14:	98800117 	ldw	r2,4(r19)
 8004c18:	18c00044 	addi	r3,r3,1
 8004c1c:	98c00015 	stw	r3,0(r19)
 8004c20:	10bfffc4 	addi	r2,r2,-1
 8004c24:	98800115 	stw	r2,4(r19)
 8004c28:	94800044 	addi	r18,r18,1
 8004c2c:	00bff216 	blt	zero,r2,8004bf8 <__alt_mem_onchip_memory2_0+0xf8003b78>
 8004c30:	980b883a 	mov	r5,r19
 8004c34:	b809883a 	mov	r4,r23
 8004c38:	800bc440 	call	800bc44 <__srefill_r>
 8004c3c:	103fee26 	beq	r2,zero,8004bf8 <__alt_mem_onchip_memory2_0+0xf8003b78>
 8004c40:	a00d883a 	mov	r6,r20
 8004c44:	30800003 	ldbu	r2,0(r6)
 8004c48:	35000044 	addi	r20,r6,1
 8004c4c:	d8809b15 	stw	r2,620(sp)
 8004c50:	103fe21e 	bne	r2,zero,8004bdc <__alt_mem_onchip_memory2_0+0xf8003b5c>
 8004c54:	d880a017 	ldw	r2,640(sp)
 8004c58:	00009a06 	br	8004ec4 <__svfscanf_r+0x374>
 8004c5c:	00c00944 	movi	r3,37
 8004c60:	10c0891e 	bne	r2,r3,8004e88 <__svfscanf_r+0x338>
 8004c64:	0039883a 	mov	fp,zero
 8004c68:	35400043 	ldbu	r21,1(r6)
 8004c6c:	0023883a 	mov	r17,zero
 8004c70:	01801e04 	movi	r6,120
 8004c74:	00c01b04 	movi	r3,108
 8004c78:	e009883a 	mov	r4,fp
 8004c7c:	a1c00044 	addi	r7,r20,1
 8004c80:	3540a236 	bltu	r6,r21,8004f0c <__svfscanf_r+0x3bc>
 8004c84:	a80490ba 	slli	r2,r21,2
 8004c88:	01420034 	movhi	r5,2048
 8004c8c:	29532704 	addi	r5,r5,19612
 8004c90:	1145883a 	add	r2,r2,r5
 8004c94:	10800017 	ldw	r2,0(r2)
 8004c98:	1000683a 	jmp	r2
 8004c9c:	08004ec0 	call	8004ec <__alt_mem_sdram-0x77ffb14>
 8004ca0:	08004f0c 	andi	zero,at,316
 8004ca4:	08004f0c 	andi	zero,at,316
 8004ca8:	08004f0c 	andi	zero,at,316
 8004cac:	08004f0c 	andi	zero,at,316
 8004cb0:	08004f0c 	andi	zero,at,316
 8004cb4:	08004f0c 	andi	zero,at,316
 8004cb8:	08004f0c 	andi	zero,at,316
 8004cbc:	08004f0c 	andi	zero,at,316
 8004cc0:	08004f0c 	andi	zero,at,316
 8004cc4:	08004f0c 	andi	zero,at,316
 8004cc8:	08004f0c 	andi	zero,at,316
 8004ccc:	08004f0c 	andi	zero,at,316
 8004cd0:	08004f0c 	andi	zero,at,316
 8004cd4:	08004f0c 	andi	zero,at,316
 8004cd8:	08004f0c 	andi	zero,at,316
 8004cdc:	08004f0c 	andi	zero,at,316
 8004ce0:	08004f0c 	andi	zero,at,316
 8004ce4:	08004f0c 	andi	zero,at,316
 8004ce8:	08004f0c 	andi	zero,at,316
 8004cec:	08004f0c 	andi	zero,at,316
 8004cf0:	08004f0c 	andi	zero,at,316
 8004cf4:	08004f0c 	andi	zero,at,316
 8004cf8:	08004f0c 	andi	zero,at,316
 8004cfc:	08004f0c 	andi	zero,at,316
 8004d00:	08004f0c 	andi	zero,at,316
 8004d04:	08004f0c 	andi	zero,at,316
 8004d08:	08004f0c 	andi	zero,at,316
 8004d0c:	08004f0c 	andi	zero,at,316
 8004d10:	08004f0c 	andi	zero,at,316
 8004d14:	08004f0c 	andi	zero,at,316
 8004d18:	08004f0c 	andi	zero,at,316
 8004d1c:	08004f0c 	andi	zero,at,316
 8004d20:	08004f0c 	andi	zero,at,316
 8004d24:	08004f0c 	andi	zero,at,316
 8004d28:	08004f0c 	andi	zero,at,316
 8004d2c:	08004f0c 	andi	zero,at,316
 8004d30:	08004e80 	call	8004e8 <__alt_mem_sdram-0x77ffb18>
 8004d34:	08004f0c 	andi	zero,at,316
 8004d38:	08004f0c 	andi	zero,at,316
 8004d3c:	08004f0c 	andi	zero,at,316
 8004d40:	08004f0c 	andi	zero,at,316
 8004d44:	08004ef4 	orhi	zero,at,315
 8004d48:	08004f0c 	andi	zero,at,316
 8004d4c:	08004f0c 	andi	zero,at,316
 8004d50:	08004f0c 	andi	zero,at,316
 8004d54:	08004f0c 	andi	zero,at,316
 8004d58:	08004f0c 	andi	zero,at,316
 8004d5c:	08005054 	ori	zero,at,321
 8004d60:	08005054 	ori	zero,at,321
 8004d64:	08005054 	ori	zero,at,321
 8004d68:	08005054 	ori	zero,at,321
 8004d6c:	08005054 	ori	zero,at,321
 8004d70:	08005054 	ori	zero,at,321
 8004d74:	08005054 	ori	zero,at,321
 8004d78:	08005054 	ori	zero,at,321
 8004d7c:	08005054 	ori	zero,at,321
 8004d80:	08005054 	ori	zero,at,321
 8004d84:	08004f0c 	andi	zero,at,316
 8004d88:	08004f0c 	andi	zero,at,316
 8004d8c:	08004f0c 	andi	zero,at,316
 8004d90:	08004f0c 	andi	zero,at,316
 8004d94:	08004f0c 	andi	zero,at,316
 8004d98:	08004f0c 	andi	zero,at,316
 8004d9c:	08004f0c 	andi	zero,at,316
 8004da0:	08004f0c 	andi	zero,at,316
 8004da4:	08004f0c 	andi	zero,at,316
 8004da8:	08004f0c 	andi	zero,at,316
 8004dac:	08005024 	muli	zero,at,320
 8004db0:	08005100 	call	800510 <__alt_mem_sdram-0x77ffaf0>
 8004db4:	08004f0c 	andi	zero,at,316
 8004db8:	08005100 	call	800510 <__alt_mem_sdram-0x77ffaf0>
 8004dbc:	08004f0c 	andi	zero,at,316
 8004dc0:	08004f0c 	andi	zero,at,316
 8004dc4:	08004f0c 	andi	zero,at,316
 8004dc8:	08004f0c 	andi	zero,at,316
 8004dcc:	080050ec 	andhi	zero,at,323
 8004dd0:	08004f0c 	andi	zero,at,316
 8004dd4:	08004f0c 	andi	zero,at,316
 8004dd8:	080050bc 	xorhi	zero,at,322
 8004ddc:	08004f0c 	andi	zero,at,316
 8004de0:	08004f0c 	andi	zero,at,316
 8004de4:	08004f0c 	andi	zero,at,316
 8004de8:	08004f0c 	andi	zero,at,316
 8004dec:	08004f0c 	andi	zero,at,316
 8004df0:	08004f0c 	andi	zero,at,316
 8004df4:	08004f0c 	andi	zero,at,316
 8004df8:	08004f0c 	andi	zero,at,316
 8004dfc:	0800508c 	andi	zero,at,322
 8004e00:	08004f0c 	andi	zero,at,316
 8004e04:	08004f0c 	andi	zero,at,316
 8004e08:	08005248 	cmpgei	zero,at,329
 8004e0c:	08004f0c 	andi	zero,at,316
 8004e10:	08004f0c 	andi	zero,at,316
 8004e14:	08004f0c 	andi	zero,at,316
 8004e18:	08004f0c 	andi	zero,at,316
 8004e1c:	08004f0c 	andi	zero,at,316
 8004e20:	08004f0c 	andi	zero,at,316
 8004e24:	08004f0c 	andi	zero,at,316
 8004e28:	080051c8 	cmpgei	zero,at,327
 8004e2c:	0800519c 	xori	zero,at,326
 8004e30:	08005100 	call	800510 <__alt_mem_sdram-0x77ffaf0>
 8004e34:	08005100 	call	800510 <__alt_mem_sdram-0x77ffaf0>
 8004e38:	08005100 	call	800510 <__alt_mem_sdram-0x77ffaf0>
 8004e3c:	08005188 	cmpgei	zero,at,326
 8004e40:	080052d8 	cmpnei	zero,at,331
 8004e44:	08004f0c 	andi	zero,at,316
 8004e48:	08004f0c 	andi	zero,at,316
 8004e4c:	08005174 	orhi	zero,at,325
 8004e50:	08004f0c 	andi	zero,at,316
 8004e54:	08005144 	addi	zero,at,325
 8004e58:	08005118 	cmpnei	zero,at,324
 8004e5c:	08004ff4 	orhi	zero,at,319
 8004e60:	08004f0c 	andi	zero,at,316
 8004e64:	08004f0c 	andi	zero,at,316
 8004e68:	08004fdc 	xori	zero,at,319
 8004e6c:	08004f0c 	andi	zero,at,316
 8004e70:	08004f60 	cmpeqi	zero,at,317
 8004e74:	08004f0c 	andi	zero,at,316
 8004e78:	08004f0c 	andi	zero,at,316
 8004e7c:	0800508c 	andi	zero,at,322
 8004e80:	d9c09d15 	stw	r7,628(sp)
 8004e84:	3829883a 	mov	r20,r7
 8004e88:	98800117 	ldw	r2,4(r19)
 8004e8c:	0081c60e 	bge	zero,r2,80055a8 <__svfscanf_r+0xa58>
 8004e90:	98800017 	ldw	r2,0(r19)
 8004e94:	a0ffffc3 	ldbu	r3,-1(r20)
 8004e98:	11000003 	ldbu	r4,0(r2)
 8004e9c:	20ff6d1e 	bne	r4,r3,8004c54 <__alt_mem_onchip_memory2_0+0xf8003bd4>
 8004ea0:	98c00117 	ldw	r3,4(r19)
 8004ea4:	10800044 	addi	r2,r2,1
 8004ea8:	98800015 	stw	r2,0(r19)
 8004eac:	18bfffc4 	addi	r2,r3,-1
 8004eb0:	98800115 	stw	r2,4(r19)
 8004eb4:	94800044 	addi	r18,r18,1
 8004eb8:	a00d883a 	mov	r6,r20
 8004ebc:	003f6106 	br	8004c44 <__alt_mem_onchip_memory2_0+0xf8003bc4>
 8004ec0:	00bfffc4 	movi	r2,-1
 8004ec4:	dfc0b417 	ldw	ra,720(sp)
 8004ec8:	df00b317 	ldw	fp,716(sp)
 8004ecc:	ddc0b217 	ldw	r23,712(sp)
 8004ed0:	dd80b117 	ldw	r22,708(sp)
 8004ed4:	dd40b017 	ldw	r21,704(sp)
 8004ed8:	dd00af17 	ldw	r20,700(sp)
 8004edc:	dcc0ae17 	ldw	r19,696(sp)
 8004ee0:	dc80ad17 	ldw	r18,692(sp)
 8004ee4:	dc40ac17 	ldw	r17,688(sp)
 8004ee8:	dc00ab17 	ldw	r16,684(sp)
 8004eec:	dec0b504 	addi	sp,sp,724
 8004ef0:	f800283a 	ret
 8004ef4:	a1400043 	ldbu	r5,1(r20)
 8004ef8:	3829883a 	mov	r20,r7
 8004efc:	8c400414 	ori	r17,r17,16
 8004f00:	2d403fcc 	andi	r21,r5,255
 8004f04:	a1c00044 	addi	r7,r20,1
 8004f08:	357f5e2e 	bgeu	r6,r21,8004c84 <__alt_mem_onchip_memory2_0+0xf8003c04>
 8004f0c:	856b883a 	add	r21,r16,r21
 8004f10:	a8800043 	ldbu	r2,1(r21)
 8004f14:	d9c09d15 	stw	r7,628(sp)
 8004f18:	00c00044 	movi	r3,1
 8004f1c:	108000cc 	andi	r2,r2,3
 8004f20:	2039883a 	mov	fp,r4
 8004f24:	10c1a526 	beq	r2,r3,80055bc <__svfscanf_r+0xa6c>
 8004f28:	98800117 	ldw	r2,4(r19)
 8004f2c:	00804216 	blt	zero,r2,8005038 <__svfscanf_r+0x4e8>
 8004f30:	980b883a 	mov	r5,r19
 8004f34:	b809883a 	mov	r4,r23
 8004f38:	800bc440 	call	800bc44 <__srefill_r>
 8004f3c:	10015e1e 	bne	r2,zero,80054b8 <__svfscanf_r+0x968>
 8004f40:	01020074 	movhi	r4,2049
 8004f44:	21367d04 	addi	r4,r4,-9740
 8004f48:	01400284 	movi	r5,10
 8004f4c:	b4000017 	ldw	r16,0(r22)
 8004f50:	d900a115 	stw	r4,644(sp)
 8004f54:	d9409e15 	stw	r5,632(sp)
 8004f58:	050000c4 	movi	r20,3
 8004f5c:	00000a06 	br	8004f88 <__svfscanf_r+0x438>
 8004f60:	98800117 	ldw	r2,4(r19)
 8004f64:	d9c09d15 	stw	r7,628(sp)
 8004f68:	2039883a 	mov	fp,r4
 8004f6c:	0081e20e 	bge	zero,r2,80056f8 <__svfscanf_r+0xba8>
 8004f70:	00c20074 	movhi	r3,2049
 8004f74:	18f7db04 	addi	r3,r3,-8340
 8004f78:	01000284 	movi	r4,10
 8004f7c:	d8c0a115 	stw	r3,644(sp)
 8004f80:	d9009e15 	stw	r4,632(sp)
 8004f84:	050000c4 	movi	r20,3
 8004f88:	98c00017 	ldw	r3,0(r19)
 8004f8c:	00000206 	br	8004f98 <__svfscanf_r+0x448>
 8004f90:	18c00044 	addi	r3,r3,1
 8004f94:	98c00015 	stw	r3,0(r19)
 8004f98:	19000003 	ldbu	r4,0(r3)
 8004f9c:	20803fcc 	andi	r2,r4,255
 8004fa0:	8085883a 	add	r2,r16,r2
 8004fa4:	10800043 	ldbu	r2,1(r2)
 8004fa8:	1140020c 	andi	r5,r2,8
 8004fac:	28020126 	beq	r5,zero,80057b4 <__svfscanf_r+0xc64>
 8004fb0:	98800117 	ldw	r2,4(r19)
 8004fb4:	94800044 	addi	r18,r18,1
 8004fb8:	10bfffc4 	addi	r2,r2,-1
 8004fbc:	98800115 	stw	r2,4(r19)
 8004fc0:	00bff316 	blt	zero,r2,8004f90 <__alt_mem_onchip_memory2_0+0xf8003f10>
 8004fc4:	980b883a 	mov	r5,r19
 8004fc8:	b809883a 	mov	r4,r23
 8004fcc:	800bc440 	call	800bc44 <__srefill_r>
 8004fd0:	1001391e 	bne	r2,zero,80054b8 <__svfscanf_r+0x968>
 8004fd4:	b4000017 	ldw	r16,0(r22)
 8004fd8:	003feb06 	br	8004f88 <__alt_mem_onchip_memory2_0+0xf8003f08>
 8004fdc:	98800117 	ldw	r2,4(r19)
 8004fe0:	d9c09d15 	stw	r7,628(sp)
 8004fe4:	2039883a 	mov	fp,r4
 8004fe8:	0081aa0e 	bge	zero,r2,8005694 <__svfscanf_r+0xb44>
 8004fec:	05000084 	movi	r20,2
 8004ff0:	003fe506 	br	8004f88 <__alt_mem_onchip_memory2_0+0xf8003f08>
 8004ff4:	98800117 	ldw	r2,4(r19)
 8004ff8:	d9c09d15 	stw	r7,628(sp)
 8004ffc:	2039883a 	mov	fp,r4
 8005000:	8c408814 	ori	r17,r17,544
 8005004:	0081df0e 	bge	zero,r2,8005784 <__svfscanf_r+0xc34>
 8005008:	00c20074 	movhi	r3,2049
 800500c:	18f7db04 	addi	r3,r3,-8340
 8005010:	01000404 	movi	r4,16
 8005014:	d8c0a115 	stw	r3,644(sp)
 8005018:	d9009e15 	stw	r4,632(sp)
 800501c:	050000c4 	movi	r20,3
 8005020:	003fd906 	br	8004f88 <__alt_mem_onchip_memory2_0+0xf8003f08>
 8005024:	98800117 	ldw	r2,4(r19)
 8005028:	d9c09d15 	stw	r7,628(sp)
 800502c:	2039883a 	mov	fp,r4
 8005030:	8c400054 	ori	r17,r17,1
 8005034:	0081850e 	bge	zero,r2,800564c <__svfscanf_r+0xafc>
 8005038:	00c20074 	movhi	r3,2049
 800503c:	18f67d04 	addi	r3,r3,-9740
 8005040:	01000284 	movi	r4,10
 8005044:	d8c0a115 	stw	r3,644(sp)
 8005048:	d9009e15 	stw	r4,632(sp)
 800504c:	050000c4 	movi	r20,3
 8005050:	003fcd06 	br	8004f88 <__alt_mem_onchip_memory2_0+0xf8003f08>
 8005054:	01400284 	movi	r5,10
 8005058:	d8c0a615 	stw	r3,664(sp)
 800505c:	d980a915 	stw	r6,676(sp)
 8005060:	d9c0aa15 	stw	r7,680(sp)
 8005064:	80019040 	call	8001904 <__mulsi3>
 8005068:	a1400043 	ldbu	r5,1(r20)
 800506c:	d9c0aa17 	ldw	r7,680(sp)
 8005070:	1545883a 	add	r2,r2,r21
 8005074:	113ff404 	addi	r4,r2,-48
 8005078:	3829883a 	mov	r20,r7
 800507c:	2d403fcc 	andi	r21,r5,255
 8005080:	d8c0a617 	ldw	r3,664(sp)
 8005084:	d980a917 	ldw	r6,676(sp)
 8005088:	003efc06 	br	8004c7c <__alt_mem_onchip_memory2_0+0xf8003bfc>
 800508c:	98800117 	ldw	r2,4(r19)
 8005090:	d9c09d15 	stw	r7,628(sp)
 8005094:	2039883a 	mov	fp,r4
 8005098:	8c408014 	ori	r17,r17,512
 800509c:	0081710e 	bge	zero,r2,8005664 <__svfscanf_r+0xb14>
 80050a0:	01420074 	movhi	r5,2049
 80050a4:	2977db04 	addi	r5,r5,-8340
 80050a8:	00800404 	movi	r2,16
 80050ac:	d940a115 	stw	r5,644(sp)
 80050b0:	d8809e15 	stw	r2,632(sp)
 80050b4:	050000c4 	movi	r20,3
 80050b8:	003fb306 	br	8004f88 <__alt_mem_onchip_memory2_0+0xf8003f08>
 80050bc:	98800117 	ldw	r2,4(r19)
 80050c0:	d9c09d15 	stw	r7,628(sp)
 80050c4:	2039883a 	mov	fp,r4
 80050c8:	8c400054 	ori	r17,r17,1
 80050cc:	0081840e 	bge	zero,r2,80056e0 <__svfscanf_r+0xb90>
 80050d0:	01420074 	movhi	r5,2049
 80050d4:	2977db04 	addi	r5,r5,-8340
 80050d8:	00800204 	movi	r2,8
 80050dc:	d940a115 	stw	r5,644(sp)
 80050e0:	d8809e15 	stw	r2,632(sp)
 80050e4:	050000c4 	movi	r20,3
 80050e8:	003fa706 	br	8004f88 <__alt_mem_onchip_memory2_0+0xf8003f08>
 80050ec:	a1400043 	ldbu	r5,1(r20)
 80050f0:	8c400094 	ori	r17,r17,2
 80050f4:	3829883a 	mov	r20,r7
 80050f8:	2d403fcc 	andi	r21,r5,255
 80050fc:	003edf06 	br	8004c7c <__alt_mem_onchip_memory2_0+0xf8003bfc>
 8005100:	98800117 	ldw	r2,4(r19)
 8005104:	d9c09d15 	stw	r7,628(sp)
 8005108:	2039883a 	mov	fp,r4
 800510c:	00816d0e 	bge	zero,r2,80056c4 <__svfscanf_r+0xb74>
